
Syscall.bin:     file format binary


Disassembly of section .data:

00000000 <.data>:
       0:	08000a84 	j	0x2a10
       4:	00000000 	sll	zero,zero,0x0
       8:	08000338 	j	0xce0
       c:	00000000 	sll	zero,zero,0x0
      10:	00000000 	sll	zero,zero,0x0
      14:	00000000 	sll	zero,zero,0x0
      18:	00000000 	sll	zero,zero,0x0
      1c:	00000000 	sll	zero,zero,0x0
      20:	00000000 	sll	zero,zero,0x0
      24:	00000000 	sll	zero,zero,0x0
      28:	00000000 	sll	zero,zero,0x0
      2c:	00000000 	sll	zero,zero,0x0
      30:	00000000 	sll	zero,zero,0x0
      34:	00000000 	sll	zero,zero,0x0
      38:	00000000 	sll	zero,zero,0x0
      3c:	00000000 	sll	zero,zero,0x0
      40:	00000000 	sll	zero,zero,0x0
      44:	00000000 	sll	zero,zero,0x0
      48:	00000000 	sll	zero,zero,0x0
      4c:	00000000 	sll	zero,zero,0x0
      50:	00000000 	sll	zero,zero,0x0
      54:	00000000 	sll	zero,zero,0x0
      58:	00000000 	sll	zero,zero,0x0
      5c:	00000000 	sll	zero,zero,0x0
      60:	00000000 	sll	zero,zero,0x0
      64:	00000000 	sll	zero,zero,0x0
      68:	00000000 	sll	zero,zero,0x0
      6c:	00000000 	sll	zero,zero,0x0
      70:	00000000 	sll	zero,zero,0x0
      74:	00000000 	sll	zero,zero,0x0
      78:	00000000 	sll	zero,zero,0x0
      7c:	00000000 	sll	zero,zero,0x0
      80:	00000000 	sll	zero,zero,0x0
      84:	00000000 	sll	zero,zero,0x0
      88:	00000000 	sll	zero,zero,0x0
      8c:	00000000 	sll	zero,zero,0x0
      90:	00000000 	sll	zero,zero,0x0
      94:	00000000 	sll	zero,zero,0x0
      98:	00000000 	sll	zero,zero,0x0
      9c:	00000000 	sll	zero,zero,0x0
      a0:	00000000 	sll	zero,zero,0x0
      a4:	00000000 	sll	zero,zero,0x0
      a8:	00000000 	sll	zero,zero,0x0
      ac:	00000000 	sll	zero,zero,0x0
      b0:	00000000 	sll	zero,zero,0x0
      b4:	00000000 	sll	zero,zero,0x0
      b8:	00000000 	sll	zero,zero,0x0
      bc:	00000000 	sll	zero,zero,0x0
      c0:	00000000 	sll	zero,zero,0x0
      c4:	00000000 	sll	zero,zero,0x0
      c8:	00000000 	sll	zero,zero,0x0
      cc:	00000000 	sll	zero,zero,0x0
      d0:	00000000 	sll	zero,zero,0x0
      d4:	00000000 	sll	zero,zero,0x0
      d8:	00000000 	sll	zero,zero,0x0
      dc:	00000000 	sll	zero,zero,0x0
      e0:	00000000 	sll	zero,zero,0x0
      e4:	00000000 	sll	zero,zero,0x0
      e8:	00000000 	sll	zero,zero,0x0
      ec:	00000000 	sll	zero,zero,0x0
      f0:	00000000 	sll	zero,zero,0x0
      f4:	00000000 	sll	zero,zero,0x0
      f8:	00000000 	sll	zero,zero,0x0
      fc:	00000000 	sll	zero,zero,0x0
     100:	00000000 	sll	zero,zero,0x0
     104:	00000000 	sll	zero,zero,0x0
     108:	00000000 	sll	zero,zero,0x0
     10c:	00000000 	sll	zero,zero,0x0
     110:	00000000 	sll	zero,zero,0x0
     114:	00000000 	sll	zero,zero,0x0
     118:	00000000 	sll	zero,zero,0x0
     11c:	00000000 	sll	zero,zero,0x0
     120:	00000000 	sll	zero,zero,0x0
     124:	00000000 	sll	zero,zero,0x0
     128:	00000000 	sll	zero,zero,0x0
     12c:	00000000 	sll	zero,zero,0x0
     130:	00000000 	sll	zero,zero,0x0
     134:	00000000 	sll	zero,zero,0x0
     138:	00000000 	sll	zero,zero,0x0
     13c:	00000000 	sll	zero,zero,0x0
     140:	00000000 	sll	zero,zero,0x0
     144:	00000000 	sll	zero,zero,0x0
     148:	00000000 	sll	zero,zero,0x0
     14c:	00000000 	sll	zero,zero,0x0
     150:	00000000 	sll	zero,zero,0x0
     154:	00000000 	sll	zero,zero,0x0
     158:	00000000 	sll	zero,zero,0x0
     15c:	00000000 	sll	zero,zero,0x0
     160:	00000000 	sll	zero,zero,0x0
     164:	00000000 	sll	zero,zero,0x0
     168:	00000000 	sll	zero,zero,0x0
     16c:	00000000 	sll	zero,zero,0x0
     170:	00000000 	sll	zero,zero,0x0
     174:	00000000 	sll	zero,zero,0x0
     178:	00000000 	sll	zero,zero,0x0
     17c:	00000000 	sll	zero,zero,0x0
     180:	00000000 	sll	zero,zero,0x0
     184:	00000000 	sll	zero,zero,0x0
     188:	00000000 	sll	zero,zero,0x0
     18c:	00000000 	sll	zero,zero,0x0
     190:	00000000 	sll	zero,zero,0x0
     194:	00000000 	sll	zero,zero,0x0
     198:	00000000 	sll	zero,zero,0x0
     19c:	00000000 	sll	zero,zero,0x0
     1a0:	00000000 	sll	zero,zero,0x0
     1a4:	00000000 	sll	zero,zero,0x0
     1a8:	00000000 	sll	zero,zero,0x0
     1ac:	00000000 	sll	zero,zero,0x0
     1b0:	00000000 	sll	zero,zero,0x0
     1b4:	00000000 	sll	zero,zero,0x0
     1b8:	00000000 	sll	zero,zero,0x0
     1bc:	00000000 	sll	zero,zero,0x0
     1c0:	00000000 	sll	zero,zero,0x0
     1c4:	00000000 	sll	zero,zero,0x0
     1c8:	00000000 	sll	zero,zero,0x0
     1cc:	00000000 	sll	zero,zero,0x0
     1d0:	00000000 	sll	zero,zero,0x0
     1d4:	00000000 	sll	zero,zero,0x0
     1d8:	00000000 	sll	zero,zero,0x0
     1dc:	00000000 	sll	zero,zero,0x0
     1e0:	00000000 	sll	zero,zero,0x0
     1e4:	00000000 	sll	zero,zero,0x0
     1e8:	00000000 	sll	zero,zero,0x0
     1ec:	00000000 	sll	zero,zero,0x0
     1f0:	00000000 	sll	zero,zero,0x0
     1f4:	00000000 	sll	zero,zero,0x0
     1f8:	00000000 	sll	zero,zero,0x0
     1fc:	00000000 	sll	zero,zero,0x0
     200:	00000000 	sll	zero,zero,0x0
     204:	00000000 	sll	zero,zero,0x0
     208:	00000000 	sll	zero,zero,0x0
     20c:	00000000 	sll	zero,zero,0x0
     210:	00000000 	sll	zero,zero,0x0
     214:	00000000 	sll	zero,zero,0x0
     218:	00000000 	sll	zero,zero,0x0
     21c:	00000000 	sll	zero,zero,0x0
     220:	00000000 	sll	zero,zero,0x0
     224:	00000000 	sll	zero,zero,0x0
     228:	00000000 	sll	zero,zero,0x0
     22c:	00000000 	sll	zero,zero,0x0
     230:	00000000 	sll	zero,zero,0x0
     234:	00000000 	sll	zero,zero,0x0
     238:	00000000 	sll	zero,zero,0x0
     23c:	00000000 	sll	zero,zero,0x0
     240:	00000000 	sll	zero,zero,0x0
     244:	00000000 	sll	zero,zero,0x0
     248:	00000000 	sll	zero,zero,0x0
     24c:	00000000 	sll	zero,zero,0x0
     250:	00000000 	sll	zero,zero,0x0
     254:	00000000 	sll	zero,zero,0x0
     258:	00000000 	sll	zero,zero,0x0
     25c:	00000000 	sll	zero,zero,0x0
     260:	00000000 	sll	zero,zero,0x0
     264:	00000000 	sll	zero,zero,0x0
     268:	00000000 	sll	zero,zero,0x0
     26c:	00000000 	sll	zero,zero,0x0
     270:	00000000 	sll	zero,zero,0x0
     274:	00000000 	sll	zero,zero,0x0
     278:	00000000 	sll	zero,zero,0x0
     27c:	00000000 	sll	zero,zero,0x0
     280:	00000000 	sll	zero,zero,0x0
     284:	00000000 	sll	zero,zero,0x0
     288:	00000000 	sll	zero,zero,0x0
     28c:	00000000 	sll	zero,zero,0x0
     290:	00000000 	sll	zero,zero,0x0
     294:	00000000 	sll	zero,zero,0x0
     298:	00000000 	sll	zero,zero,0x0
     29c:	00000000 	sll	zero,zero,0x0
     2a0:	00000000 	sll	zero,zero,0x0
     2a4:	00000000 	sll	zero,zero,0x0
     2a8:	00000000 	sll	zero,zero,0x0
     2ac:	00000000 	sll	zero,zero,0x0
     2b0:	00000000 	sll	zero,zero,0x0
     2b4:	00000000 	sll	zero,zero,0x0
     2b8:	00000000 	sll	zero,zero,0x0
     2bc:	00000000 	sll	zero,zero,0x0
     2c0:	00000000 	sll	zero,zero,0x0
     2c4:	00000000 	sll	zero,zero,0x0
     2c8:	00000000 	sll	zero,zero,0x0
     2cc:	00000000 	sll	zero,zero,0x0
     2d0:	00000000 	sll	zero,zero,0x0
     2d4:	00000000 	sll	zero,zero,0x0
     2d8:	00000000 	sll	zero,zero,0x0
     2dc:	00000000 	sll	zero,zero,0x0
     2e0:	00000000 	sll	zero,zero,0x0
     2e4:	00000000 	sll	zero,zero,0x0
     2e8:	00000000 	sll	zero,zero,0x0
     2ec:	00000000 	sll	zero,zero,0x0
     2f0:	00000000 	sll	zero,zero,0x0
     2f4:	00000000 	sll	zero,zero,0x0
     2f8:	00000000 	sll	zero,zero,0x0
     2fc:	00000000 	sll	zero,zero,0x0
     300:	00000000 	sll	zero,zero,0x0
     304:	00000000 	sll	zero,zero,0x0
     308:	00000000 	sll	zero,zero,0x0
     30c:	00000000 	sll	zero,zero,0x0
     310:	00000000 	sll	zero,zero,0x0
     314:	00000000 	sll	zero,zero,0x0
     318:	00000000 	sll	zero,zero,0x0
     31c:	00000000 	sll	zero,zero,0x0
     320:	00000000 	sll	zero,zero,0x0
     324:	00000000 	sll	zero,zero,0x0
     328:	00000000 	sll	zero,zero,0x0
     32c:	00000000 	sll	zero,zero,0x0
     330:	00000000 	sll	zero,zero,0x0
     334:	00000000 	sll	zero,zero,0x0
     338:	00000000 	sll	zero,zero,0x0
     33c:	00000000 	sll	zero,zero,0x0
     340:	00000000 	sll	zero,zero,0x0
     344:	00000000 	sll	zero,zero,0x0
     348:	00000000 	sll	zero,zero,0x0
     34c:	00000000 	sll	zero,zero,0x0
     350:	00000000 	sll	zero,zero,0x0
     354:	00000000 	sll	zero,zero,0x0
     358:	00000000 	sll	zero,zero,0x0
     35c:	00000000 	sll	zero,zero,0x0
     360:	00000000 	sll	zero,zero,0x0
     364:	00000000 	sll	zero,zero,0x0
     368:	00000000 	sll	zero,zero,0x0
     36c:	00000000 	sll	zero,zero,0x0
     370:	00000000 	sll	zero,zero,0x0
     374:	00000000 	sll	zero,zero,0x0
     378:	00000000 	sll	zero,zero,0x0
     37c:	00000000 	sll	zero,zero,0x0
     380:	00000000 	sll	zero,zero,0x0
     384:	00000000 	sll	zero,zero,0x0
     388:	00000000 	sll	zero,zero,0x0
     38c:	00000000 	sll	zero,zero,0x0
     390:	00000000 	sll	zero,zero,0x0
     394:	00000000 	sll	zero,zero,0x0
     398:	00000000 	sll	zero,zero,0x0
     39c:	00000000 	sll	zero,zero,0x0
     3a0:	00000000 	sll	zero,zero,0x0
     3a4:	00000000 	sll	zero,zero,0x0
     3a8:	00000000 	sll	zero,zero,0x0
     3ac:	00000000 	sll	zero,zero,0x0
     3b0:	00000000 	sll	zero,zero,0x0
     3b4:	00000000 	sll	zero,zero,0x0
     3b8:	00000000 	sll	zero,zero,0x0
     3bc:	00000000 	sll	zero,zero,0x0
     3c0:	00000000 	sll	zero,zero,0x0
     3c4:	00000000 	sll	zero,zero,0x0
     3c8:	00000000 	sll	zero,zero,0x0
     3cc:	00000000 	sll	zero,zero,0x0
     3d0:	00000000 	sll	zero,zero,0x0
     3d4:	00000000 	sll	zero,zero,0x0
     3d8:	00000000 	sll	zero,zero,0x0
     3dc:	00000000 	sll	zero,zero,0x0
     3e0:	00000000 	sll	zero,zero,0x0
     3e4:	00000000 	sll	zero,zero,0x0
     3e8:	00000000 	sll	zero,zero,0x0
     3ec:	00000000 	sll	zero,zero,0x0
     3f0:	00000000 	sll	zero,zero,0x0
     3f4:	00000000 	sll	zero,zero,0x0
     3f8:	00000000 	sll	zero,zero,0x0
     3fc:	00000000 	sll	zero,zero,0x0
     400:	00000000 	sll	zero,zero,0x0
     404:	00000000 	sll	zero,zero,0x0
     408:	00000000 	sll	zero,zero,0x0
     40c:	00000000 	sll	zero,zero,0x0
     410:	00000000 	sll	zero,zero,0x0
     414:	00000000 	sll	zero,zero,0x0
     418:	00000000 	sll	zero,zero,0x0
     41c:	00000000 	sll	zero,zero,0x0
     420:	00000000 	sll	zero,zero,0x0
     424:	00000000 	sll	zero,zero,0x0
     428:	00000000 	sll	zero,zero,0x0
     42c:	00000000 	sll	zero,zero,0x0
     430:	00000000 	sll	zero,zero,0x0
     434:	27bdffd0 	addiu	sp,sp,-48
     438:	afbf002c 	sw	ra,44(sp)
     43c:	afb60028 	sw	s6,40(sp)
     440:	afb50024 	sw	s5,36(sp)
     444:	afb40020 	sw	s4,32(sp)
     448:	afb3001c 	sw	s3,28(sp)
     44c:	afb20018 	sw	s2,24(sp)
     450:	afb10014 	sw	s1,20(sp)
     454:	afb00010 	sw	s0,16(sp)
     458:	0000a021 	addu	s4,zero,zero
     45c:	3c13000c 	lui	s3,0xc
     460:	2416001d 	addiu	s6,zero,29
     464:	08000133 	j	0x4cc
     468:	00000000 	sll	zero,zero,0x0
     46c:	24040028 	addiu	a0,zero,40
     470:	02802821 	addu	a1,s4,zero
     474:	0c00041b 	jal	0x106c
     478:	00000000 	sll	zero,zero,0x0
     47c:	00408021 	addu	s0,v0,zero
     480:	24040028 	addiu	a0,zero,40
     484:	02402821 	addu	a1,s2,zero
     488:	0c00041b 	jal	0x106c
     48c:	00000000 	sll	zero,zero,0x0
     490:	00511021 	addu	v0,v0,s1
     494:	00021080 	sll	v0,v0,0x2
     498:	02621021 	addu	v0,s3,v0
     49c:	8c420000 	lw	v0,0(v0)
     4a0:	02118021 	addu	s0,s0,s1
     4a4:	00108080 	sll	s0,s0,0x2
     4a8:	02708021 	addu	s0,s3,s0
     4ac:	ae020000 	sw	v0,0(s0)
     4b0:	26310001 	addiu	s1,s1,1
     4b4:	24020028 	addiu	v0,zero,40
     4b8:	1622ffec 	bne	s1,v0,0x46c
     4bc:	00000000 	sll	zero,zero,0x0
     4c0:	12560006 	beq	s2,s6,0x4dc
     4c4:	00000000 	sll	zero,zero,0x0
     4c8:	0240a021 	addu	s4,s2,zero
     4cc:	00008821 	addu	s1,zero,zero
     4d0:	26920001 	addiu	s2,s4,1
     4d4:	0800011b 	j	0x46c
     4d8:	00000000 	sll	zero,zero,0x0
     4dc:	00008021 	addu	s0,zero,zero
     4e0:	3c11000c 	lui	s1,0xc
     4e4:	24040028 	addiu	a0,zero,40
     4e8:	2405001d 	addiu	a1,zero,29
     4ec:	0c00041b 	jal	0x106c
     4f0:	00000000 	sll	zero,zero,0x0
     4f4:	00501021 	addu	v0,v0,s0
     4f8:	00021080 	sll	v0,v0,0x2
     4fc:	02221021 	addu	v0,s1,v0
     500:	ac400000 	sw	zero,0(v0)
     504:	26100001 	addiu	s0,s0,1
     508:	24020028 	addiu	v0,zero,40
     50c:	1602fff5 	bne	s0,v0,0x4e4
     510:	00000000 	sll	zero,zero,0x0
     514:	8fbf002c 	lw	ra,44(sp)
     518:	8fb60028 	lw	s6,40(sp)
     51c:	8fb50024 	lw	s5,36(sp)
     520:	8fb40020 	lw	s4,32(sp)
     524:	8fb3001c 	lw	s3,28(sp)
     528:	8fb20018 	lw	s2,24(sp)
     52c:	8fb10014 	lw	s1,20(sp)
     530:	8fb00010 	lw	s0,16(sp)
     534:	27bd0030 	addiu	sp,sp,48
     538:	03e00008 	jr	ra
     53c:	00000000 	sll	zero,zero,0x0
     540:	27bdffe0 	addiu	sp,sp,-32
     544:	afbf001c 	sw	ra,28(sp)
     548:	afb20018 	sw	s2,24(sp)
     54c:	afb10014 	sw	s1,20(sp)
     550:	afb00010 	sw	s0,16(sp)
     554:	00808821 	addu	s1,a0,zero
     558:	24020134 	addiu	v0,zero,308
     55c:	8c520000 	lw	s2,0(v0)
     560:	8c500004 	lw	s0,4(v0)
     564:	308600ff 	andi	a2,a0,0xff
     568:	24c3ffec 	addiu	v1,a2,-20
     56c:	2c6300ec 	sltiu	v1,v1,236
     570:	10600032 	beqz	v1,0x63c
     574:	00000000 	sll	zero,zero,0x0
     578:	24040028 	addiu	a0,zero,40
     57c:	02402821 	addu	a1,s2,zero
     580:	0c00041b 	jal	0x106c
     584:	00000000 	sll	zero,zero,0x0
     588:	00501021 	addu	v0,v0,s0
     58c:	00021080 	sll	v0,v0,0x2
     590:	3c03000c 	lui	v1,0xc
     594:	00621021 	addu	v0,v1,v0
     598:	ac510000 	sw	s1,0(v0)
     59c:	24020027 	addiu	v0,zero,39
     5a0:	1602001a 	bne	s0,v0,0x60c
     5a4:	00000000 	sll	zero,zero,0x0
     5a8:	ac000138 	sw	zero,312(zero)
     5ac:	8c020134 	lw	v0,308(zero)
     5b0:	0002d400 	sll	k0,v0,0x10
     5b4:	00001821 	addu	v1,zero,zero
     5b8:	0003da80 	sll	k1,v1,0xa
     5bc:	035bd020 	add	k0,k0,k1
     5c0:	2403ff00 	addiu	v1,zero,-256
     5c4:	ac7a0000 	sw	k0,0(v1)
     5c8:	2403001d 	addiu	v1,zero,29
     5cc:	16430005 	bne	s2,v1,0x5e4
     5d0:	00000000 	sll	zero,zero,0x0
     5d4:	0c00010d 	jal	0x434
     5d8:	00000000 	sll	zero,zero,0x0
     5dc:	080001d5 	j	0x754
     5e0:	00000000 	sll	zero,zero,0x0
     5e4:	24420001 	addiu	v0,v0,1
     5e8:	ac020134 	sw	v0,308(zero)
     5ec:	0002d400 	sll	k0,v0,0x10
     5f0:	8c020138 	lw	v0,312(zero)
     5f4:	0002da80 	sll	k1,v0,0xa
     5f8:	035bd020 	add	k0,k0,k1
     5fc:	2402ff00 	addiu	v0,zero,-256
     600:	ac5a0000 	sw	k0,0(v0)
     604:	080001d5 	j	0x754
     608:	00000000 	sll	zero,zero,0x0
     60c:	24030138 	addiu	v1,zero,312
     610:	8c620000 	lw	v0,0(v1)
     614:	24420001 	addiu	v0,v0,1
     618:	ac620000 	sw	v0,0(v1)
     61c:	8c030134 	lw	v1,308(zero)
     620:	0003d400 	sll	k0,v1,0x10
     624:	0002da80 	sll	k1,v0,0xa
     628:	035bd020 	add	k0,k0,k1
     62c:	2402ff00 	addiu	v0,zero,-256
     630:	ac5a0000 	sw	k0,0(v0)
     634:	080001d5 	j	0x754
     638:	00000000 	sll	zero,zero,0x0
     63c:	24020008 	addiu	v0,zero,8
     640:	14c2002e 	bne	a2,v0,0x6fc
     644:	00000000 	sll	zero,zero,0x0
     648:	12000017 	beqz	s0,0x6a8
     64c:	00000000 	sll	zero,zero,0x0
     650:	24040028 	addiu	a0,zero,40
     654:	02402821 	addu	a1,s2,zero
     658:	0c00041b 	jal	0x106c
     65c:	00000000 	sll	zero,zero,0x0
     660:	02021021 	addu	v0,s0,v0
     664:	2442ffff 	addiu	v0,v0,-1
     668:	00021080 	sll	v0,v0,0x2
     66c:	3c03000c 	lui	v1,0xc
     670:	00621021 	addu	v0,v1,v0
     674:	ac400000 	sw	zero,0(v0)
     678:	24030138 	addiu	v1,zero,312
     67c:	8c620000 	lw	v0,0(v1)
     680:	2442ffff 	addiu	v0,v0,-1
     684:	ac620000 	sw	v0,0(v1)
     688:	8c030134 	lw	v1,308(zero)
     68c:	0003d400 	sll	k0,v1,0x10
     690:	0002da80 	sll	k1,v0,0xa
     694:	035bd020 	add	k0,k0,k1
     698:	2402ff00 	addiu	v0,zero,-256
     69c:	ac5a0000 	sw	k0,0(v0)
     6a0:	080001d5 	j	0x754
     6a4:	00000000 	sll	zero,zero,0x0
     6a8:	24040028 	addiu	a0,zero,40
     6ac:	2645ffff 	addiu	a1,s2,-1
     6b0:	0c00041b 	jal	0x106c
     6b4:	00000000 	sll	zero,zero,0x0
     6b8:	24420027 	addiu	v0,v0,39
     6bc:	00021080 	sll	v0,v0,0x2
     6c0:	3c03000c 	lui	v1,0xc
     6c4:	00621021 	addu	v0,v1,v0
     6c8:	ac400000 	sw	zero,0(v0)
     6cc:	24030134 	addiu	v1,zero,308
     6d0:	8c620000 	lw	v0,0(v1)
     6d4:	2442ffff 	addiu	v0,v0,-1
     6d8:	ac620000 	sw	v0,0(v1)
     6dc:	0002d400 	sll	k0,v0,0x10
     6e0:	8c020138 	lw	v0,312(zero)
     6e4:	0002da80 	sll	k1,v0,0xa
     6e8:	035bd020 	add	k0,k0,k1
     6ec:	2402ff00 	addiu	v0,zero,-256
     6f0:	ac5a0000 	sw	k0,0(v0)
     6f4:	080001d5 	j	0x754
     6f8:	00000000 	sll	zero,zero,0x0
     6fc:	2402000d 	addiu	v0,zero,13
     700:	14c20014 	bne	a2,v0,0x754
     704:	00000000 	sll	zero,zero,0x0
     708:	ac000138 	sw	zero,312(zero)
     70c:	2402001d 	addiu	v0,zero,29
     710:	16420005 	bne	s2,v0,0x728
     714:	00000000 	sll	zero,zero,0x0
     718:	0c00010d 	jal	0x434
     71c:	00000000 	sll	zero,zero,0x0
     720:	080001ce 	j	0x738
     724:	00000000 	sll	zero,zero,0x0
     728:	24030134 	addiu	v1,zero,308
     72c:	8c620000 	lw	v0,0(v1)
     730:	24420001 	addiu	v0,v0,1
     734:	ac620000 	sw	v0,0(v1)
     738:	8c020134 	lw	v0,308(zero)
     73c:	0002d400 	sll	k0,v0,0x10
     740:	8c020138 	lw	v0,312(zero)
     744:	0002da80 	sll	k1,v0,0xa
     748:	035bd020 	add	k0,k0,k1
     74c:	2402ff00 	addiu	v0,zero,-256
     750:	ac5a0000 	sw	k0,0(v0)
     754:	8fbf001c 	lw	ra,28(sp)
     758:	8fb20018 	lw	s2,24(sp)
     75c:	8fb10014 	lw	s1,20(sp)
     760:	8fb00010 	lw	s0,16(sp)
     764:	27bd0020 	addiu	sp,sp,32
     768:	03e00008 	jr	ra
     76c:	00000000 	sll	zero,zero,0x0
     770:	27bdffe8 	addiu	sp,sp,-24
     774:	afbf0014 	sw	ra,20(sp)
     778:	afb00010 	sw	s0,16(sp)
     77c:	00808021 	addu	s0,a0,zero
     780:	8c840000 	lw	a0,0(a0)
     784:	10800008 	beqz	a0,0x7a8
     788:	00000000 	sll	zero,zero,0x0
     78c:	26100004 	addiu	s0,s0,4
     790:	0c000150 	jal	0x540
     794:	00000000 	sll	zero,zero,0x0
     798:	26100004 	addiu	s0,s0,4
     79c:	8e04fffc 	lw	a0,-4(s0)
     7a0:	1480fffb 	bnez	a0,0x790
     7a4:	00000000 	sll	zero,zero,0x0
     7a8:	8fbf0014 	lw	ra,20(sp)
     7ac:	8fb00010 	lw	s0,16(sp)
     7b0:	27bd0018 	addiu	sp,sp,24
     7b4:	03e00008 	jr	ra
     7b8:	00000000 	sll	zero,zero,0x0
     7bc:	27bdffe0 	addiu	sp,sp,-32
     7c0:	afbf001c 	sw	ra,28(sp)
     7c4:	afb10018 	sw	s1,24(sp)
     7c8:	afb00014 	sw	s0,20(sp)
     7cc:	00808821 	addu	s1,a0,zero
     7d0:	24100008 	addiu	s0,zero,8
     7d4:	00111702 	srl	v0,s1,0x1c
     7d8:	00021080 	sll	v0,v0,0x2
     7dc:	8c4400f4 	lw	a0,244(v0)
     7e0:	24840700 	addiu	a0,a0,1792
     7e4:	0c000150 	jal	0x540
     7e8:	00000000 	sll	zero,zero,0x0
     7ec:	00118900 	sll	s1,s1,0x4
     7f0:	2610ffff 	addiu	s0,s0,-1
     7f4:	1600fff7 	bnez	s0,0x7d4
     7f8:	00000000 	sll	zero,zero,0x0
     7fc:	8fbf001c 	lw	ra,28(sp)
     800:	8fb10018 	lw	s1,24(sp)
     804:	8fb00014 	lw	s0,20(sp)
     808:	27bd0020 	addiu	sp,sp,32
     80c:	03e00008 	jr	ra
     810:	00000000 	sll	zero,zero,0x0
     814:	8c037f00 	lw	v1,32512(zero)
     818:	00031402 	srl	v0,v1,0x10
     81c:	3063ffff 	andi	v1,v1,0xffff
     820:	14430004 	bne	v0,v1,0x834
     824:	00000000 	sll	zero,zero,0x0
     828:	24040000 	addiu	a0,zero,0
     82c:	03e00008 	jr	ra
     830:	00000000 	sll	zero,zero,0x0
     834:	24420001 	addiu	v0,v0,1
     838:	00022080 	sll	a0,v0,0x2
     83c:	8c847f00 	lw	a0,32512(a0)
     840:	2405000f 	addiu	a1,zero,15
     844:	14450002 	bne	v0,a1,0x850
     848:	00000000 	sll	zero,zero,0x0
     84c:	00001020 	add	v0,zero,zero
     850:	00021400 	sll	v0,v0,0x10
     854:	00431021 	addu	v0,v0,v1
     858:	ac027f00 	sw	v0,32512(zero)
     85c:	00042020 	add	a0,zero,a0
     860:	03e00008 	jr	ra
     864:	00000000 	sll	zero,zero,0x0
     868:	3c02fe00 	lui	v0,0xfe00
     86c:	ac440000 	sw	a0,0(v0)
     870:	03e00008 	jr	ra
     874:	00000000 	sll	zero,zero,0x0
     878:	24027a00 	addiu	v0,zero,31232
     87c:	a4440000 	sh	a0,0(v0)
     880:	a4400006 	sh	zero,6(v0)
     884:	24030021 	addiu	v1,zero,33
     888:	3c02fe00 	lui	v0,0xfe00
     88c:	ac430000 	sw	v1,0(v0)
     890:	3c03fe00 	lui	v1,0xfe00
     894:	308200ff 	andi	v0,a0,0xff
     898:	00042202 	srl	a0,a0,0x8
     89c:	ac620000 	sw	v0,0(v1)
     8a0:	1480fffc 	bnez	a0,0x894
     8a4:	00000000 	sll	zero,zero,0x0
     8a8:	00000000 	sll	zero,zero,0x0
     8ac:	00000000 	sll	zero,zero,0x0
     8b0:	00000000 	sll	zero,zero,0x0
     8b4:	24030023 	addiu	v1,zero,35
     8b8:	3c02fe00 	lui	v0,0xfe00
     8bc:	ac430000 	sw	v1,0(v0)
     8c0:	03e00008 	jr	ra
     8c4:	00000000 	sll	zero,zero,0x0
     8c8:	2403002a 	addiu	v1,zero,42
     8cc:	3c02fe00 	lui	v0,0xfe00
     8d0:	ac430000 	sw	v1,0(v0)
     8d4:	3c03fe00 	lui	v1,0xfe00
     8d8:	308200ff 	andi	v0,a0,0xff
     8dc:	00042202 	srl	a0,a0,0x8
     8e0:	ac620000 	sw	v0,0(v1)
     8e4:	1480fffc 	bnez	a0,0x8d8
     8e8:	00000000 	sll	zero,zero,0x0
     8ec:	24030023 	addiu	v1,zero,35
     8f0:	3c02fe00 	lui	v0,0xfe00
     8f4:	ac430000 	sw	v1,0(v0)
     8f8:	8c037a08 	lw	v1,31240(zero)
     8fc:	3c06fe00 	lui	a2,0xfe00
     900:	24050200 	addiu	a1,zero,512
     904:	0800024e 	j	0x938
     908:	00000000 	sll	zero,zero,0x0
     90c:	30820003 	andi	v0,a0,0x3
     910:	000210c0 	sll	v0,v0,0x3
     914:	00041882 	srl	v1,a0,0x2
     918:	00031880 	sll	v1,v1,0x2
     91c:	8c637a08 	lw	v1,31240(v1)
     920:	10400005 	beqz	v0,0x938
     924:	00000000 	sll	zero,zero,0x0
     928:	00031842 	srl	v1,v1,0x1
     92c:	2442ffff 	addiu	v0,v0,-1
     930:	1440fffd 	bnez	v0,0x928
     934:	00000000 	sll	zero,zero,0x0
     938:	306300ff 	andi	v1,v1,0xff
     93c:	acc30000 	sw	v1,0(a2)
     940:	24840001 	addiu	a0,a0,1
     944:	1485fff1 	bne	a0,a1,0x90c
     948:	00000000 	sll	zero,zero,0x0
     94c:	03e00008 	jr	ra
     950:	00000000 	sll	zero,zero,0x0
     954:	27bdffe8 	addiu	sp,sp,-24
     958:	afbf0014 	sw	ra,20(sp)
     95c:	00063020 	add	a2,zero,a2
     960:	00052820 	add	a1,zero,a1
     964:	00042020 	add	a0,zero,a0
     968:	00021020 	add	v0,zero,v0
     96c:	2c430010 	sltiu	v1,v0,16
     970:	1060001e 	beqz	v1,0x9ec
     974:	00000000 	sll	zero,zero,0x0
     978:	00021880 	sll	v1,v0,0x2
     97c:	3c020000 	lui	v0,0x0
     980:	24426000 	addiu	v0,v0,24576
     984:	00431021 	addu	v0,v0,v1
     988:	8c420000 	lw	v0,0(v0)
     98c:	00400008 	jr	v0
     990:	00000000 	sll	zero,zero,0x0
     994:	0c000150 	jal	0x540
     998:	00000000 	sll	zero,zero,0x0
     99c:	0800027b 	j	0x9ec
     9a0:	00000000 	sll	zero,zero,0x0
     9a4:	0c0001dc 	jal	0x770
     9a8:	00000000 	sll	zero,zero,0x0
     9ac:	0800027b 	j	0x9ec
     9b0:	00000000 	sll	zero,zero,0x0
     9b4:	0c0001ef 	jal	0x7bc
     9b8:	00000000 	sll	zero,zero,0x0
     9bc:	0800027b 	j	0x9ec
     9c0:	00000000 	sll	zero,zero,0x0
     9c4:	0c000205 	jal	0x814
     9c8:	00000000 	sll	zero,zero,0x0
     9cc:	0800027b 	j	0x9ec
     9d0:	00000000 	sll	zero,zero,0x0
     9d4:	0c00021e 	jal	0x878
     9d8:	00000000 	sll	zero,zero,0x0
     9dc:	0800027b 	j	0x9ec
     9e0:	00000000 	sll	zero,zero,0x0
     9e4:	0c000232 	jal	0x8c8
     9e8:	00000000 	sll	zero,zero,0x0
     9ec:	8fbf0014 	lw	ra,20(sp)
     9f0:	27bd0018 	addiu	sp,sp,24
     9f4:	42000018 	eret
     9f8:	8fbf0014 	lw	ra,20(sp)
     9fc:	27bd0018 	addiu	sp,sp,24
     a00:	03e00008 	jr	ra
     a04:	00000000 	sll	zero,zero,0x0
     a08:	27bdfff8 	addiu	sp,sp,-8
     a0c:	27bdffbc 	addiu	sp,sp,-68
     a10:	afa40000 	sw	a0,0(sp)
     a14:	afa50004 	sw	a1,4(sp)
     a18:	afa20008 	sw	v0,8(sp)
     a1c:	afa3000c 	sw	v1,12(sp)
     a20:	afa80010 	sw	t0,16(sp)
     a24:	afa90014 	sw	t1,20(sp)
     a28:	afaa0018 	sw	t2,24(sp)
     a2c:	afab001c 	sw	t3,28(sp)
     a30:	afac0020 	sw	t4,32(sp)
     a34:	afad0024 	sw	t5,36(sp)
     a38:	afae0028 	sw	t6,40(sp)
     a3c:	afaf002c 	sw	t7,44(sp)
     a40:	afb80030 	sw	t8,48(sp)
     a44:	afb90034 	sw	t9,52(sp)
     a48:	afa60038 	sw	a2,56(sp)
     a4c:	afa7003c 	sw	a3,60(sp)
     a50:	afbf0040 	sw	ra,64(sp)
     a54:	24020001 	addiu	v0,zero,1
     a58:	a4027a06 	sh	v0,31238(zero)
     a5c:	00001821 	addu	v1,zero,zero
     a60:	3c06fe00 	lui	a2,0xfe00
     a64:	3c020000 	lui	v0,0x0
     a68:	24080001 	addiu	t0,zero,1
     a6c:	3c0cffff 	lui	t4,0xffff
     a70:	258c00ff 	addiu	t4,t4,255
     a74:	240eff00 	addiu	t6,zero,-256
     a78:	24090002 	addiu	t1,zero,2
     a7c:	3c0bff00 	lui	t3,0xff00
     a80:	356bffff 	ori	t3,t3,0xffff
     a84:	240d0003 	addiu	t5,zero,3
     a88:	3c0a00ff 	lui	t2,0xff
     a8c:	354affff 	ori	t2,t2,0xffff
     a90:	8cc40000 	lw	a0,0(a2)
     a94:	ac4464a0 	sw	a0,25760(v0)
     a98:	00000000 	sll	zero,zero,0x0
     a9c:	00000000 	sll	zero,zero,0x0
     aa0:	00000000 	sll	zero,zero,0x0
     aa4:	00000000 	sll	zero,zero,0x0
     aa8:	00000000 	sll	zero,zero,0x0
     aac:	00000000 	sll	zero,zero,0x0
     ab0:	8c4464a0 	lw	a0,25760(v0)
     ab4:	30840100 	andi	a0,a0,0x100
     ab8:	1080003a 	beqz	a0,0xba4
     abc:	00000000 	sll	zero,zero,0x0
     ac0:	00032082 	srl	a0,v1,0x2
     ac4:	8c4564a0 	lw	a1,25760(v0)
     ac8:	30a500ff 	andi	a1,a1,0xff
     acc:	ac4564a0 	sw	a1,25760(v0)
     ad0:	30650003 	andi	a1,v1,0x3
     ad4:	10a8001b 	beq	a1,t0,0xb44
     ad8:	00000000 	sll	zero,zero,0x0
     adc:	10a00022 	beqz	a1,0xb68
     ae0:	00000000 	sll	zero,zero,0x0
     ae4:	10a9000e 	beq	a1,t1,0xb20
     ae8:	00000000 	sll	zero,zero,0x0
     aec:	14ad0022 	bne	a1,t5,0xb78
     af0:	00000000 	sll	zero,zero,0x0
     af4:	8c4564a0 	lw	a1,25760(v0)
     af8:	00052e00 	sll	a1,a1,0x18
     afc:	ac4564a0 	sw	a1,25760(v0)
     b00:	afaa0000 	sw	t2,0(sp)
     b04:	8faf0000 	lw	t7,0(sp)
     b08:	00043880 	sll	a3,a0,0x2
     b0c:	8ce57a08 	lw	a1,31240(a3)
     b10:	00af2824 	and	a1,a1,t7
     b14:	ace57a08 	sw	a1,31240(a3)
     b18:	080002de 	j	0xb78
     b1c:	00000000 	sll	zero,zero,0x0
     b20:	8c4564a0 	lw	a1,25760(v0)
     b24:	00052c00 	sll	a1,a1,0x10
     b28:	ac4564a0 	sw	a1,25760(v0)
     b2c:	00043880 	sll	a3,a0,0x2
     b30:	8ce57a08 	lw	a1,31240(a3)
     b34:	00ab2824 	and	a1,a1,t3
     b38:	ace57a08 	sw	a1,31240(a3)
     b3c:	080002de 	j	0xb78
     b40:	00000000 	sll	zero,zero,0x0
     b44:	8c4564a0 	lw	a1,25760(v0)
     b48:	00052a00 	sll	a1,a1,0x8
     b4c:	ac4564a0 	sw	a1,25760(v0)
     b50:	00043880 	sll	a3,a0,0x2
     b54:	8ce57a08 	lw	a1,31240(a3)
     b58:	00ac2824 	and	a1,a1,t4
     b5c:	ace57a08 	sw	a1,31240(a3)
     b60:	080002de 	j	0xb78
     b64:	00000000 	sll	zero,zero,0x0
     b68:	00043880 	sll	a3,a0,0x2
     b6c:	8ce57a08 	lw	a1,31240(a3)
     b70:	00ae2824 	and	a1,a1,t6
     b74:	ace57a08 	sw	a1,31240(a3)
     b78:	00000000 	sll	zero,zero,0x0
     b7c:	00000000 	sll	zero,zero,0x0
     b80:	00042080 	sll	a0,a0,0x2
     b84:	8c4564a0 	lw	a1,25760(v0)
     b88:	8c877a08 	lw	a3,31240(a0)
     b8c:	00a72825 	or	a1,a1,a3
     b90:	ac4564a0 	sw	a1,25760(v0)
     b94:	8c4564a0 	lw	a1,25760(v0)
     b98:	ac857a08 	sw	a1,31240(a0)
     b9c:	080002ea 	j	0xba8
     ba0:	00000000 	sll	zero,zero,0x0
     ba4:	2463ffff 	addiu	v1,v1,-1
     ba8:	24630001 	addiu	v1,v1,1
     bac:	2c640200 	sltiu	a0,v1,512
     bb0:	1480ffb7 	bnez	a0,0xa90
     bb4:	00000000 	sll	zero,zero,0x0
     bb8:	24020001 	addiu	v0,zero,1
     bbc:	a4027a06 	sh	v0,31238(zero)
     bc0:	8fa40000 	lw	a0,0(sp)
     bc4:	8fa50004 	lw	a1,4(sp)
     bc8:	8fa20008 	lw	v0,8(sp)
     bcc:	8fa3000c 	lw	v1,12(sp)
     bd0:	8fa80010 	lw	t0,16(sp)
     bd4:	8fa90014 	lw	t1,20(sp)
     bd8:	8faa0018 	lw	t2,24(sp)
     bdc:	8fab001c 	lw	t3,28(sp)
     be0:	8fac0020 	lw	t4,32(sp)
     be4:	8fad0024 	lw	t5,36(sp)
     be8:	8fae0028 	lw	t6,40(sp)
     bec:	8faf002c 	lw	t7,44(sp)
     bf0:	8fb80030 	lw	t8,48(sp)
     bf4:	8fb90034 	lw	t9,52(sp)
     bf8:	8fa60038 	lw	a2,56(sp)
     bfc:	8fa7003c 	lw	a3,60(sp)
     c00:	8fbf0040 	lw	ra,64(sp)
     c04:	27bd0044 	addiu	sp,sp,68
     c08:	27bd0008 	addiu	sp,sp,8
     c0c:	42000018 	eret
     c10:	27bd0008 	addiu	sp,sp,8
     c14:	03e00008 	jr	ra
     c18:	00000000 	sll	zero,zero,0x0
     c1c:	27bdffec 	addiu	sp,sp,-20
     c20:	afa40000 	sw	a0,0(sp)
     c24:	afa50004 	sw	a1,4(sp)
     c28:	afa20008 	sw	v0,8(sp)
     c2c:	afa3000c 	sw	v1,12(sp)
     c30:	afbf0010 	sw	ra,16(sp)
     c34:	8c027f00 	lw	v0,32512(zero)
     c38:	8c03d000 	lw	v1,-12288(zero)
     c3c:	240401f0 	addiu	a0,zero,496
     c40:	14640005 	bne	v1,a0,0xc58
     c44:	00000000 	sll	zero,zero,0x0
     c48:	24020001 	addiu	v0,zero,1
     c4c:	ac02013c 	sw	v0,316(zero)
     c50:	0800032c 	j	0xcb0
     c54:	00000000 	sll	zero,zero,0x0
     c58:	24040001 	addiu	a0,zero,1
     c5c:	8c05013c 	lw	a1,316(zero)
     c60:	14a40004 	bne	a1,a0,0xc74
     c64:	00000000 	sll	zero,zero,0x0
     c68:	ac00013c 	sw	zero,316(zero)
     c6c:	0800032c 	j	0xcb0
     c70:	00000000 	sll	zero,zero,0x0
     c74:	ac00013c 	sw	zero,316(zero)
     c78:	3042ffff 	andi	v0,v0,0xffff
     c7c:	24420001 	addiu	v0,v0,1
     c80:	00022080 	sll	a0,v0,0x2
     c84:	ac837f00 	sw	v1,32512(a0)
     c88:	2403000f 	addiu	v1,zero,15
     c8c:	14430002 	bne	v0,v1,0xc98
     c90:	00000000 	sll	zero,zero,0x0
     c94:	00001020 	add	v0,zero,zero
     c98:	24047f00 	addiu	a0,zero,32512
     c9c:	8c830000 	lw	v1,0(a0)
     ca0:	3c05ffff 	lui	a1,0xffff
     ca4:	00651824 	and	v1,v1,a1
     ca8:	00431021 	addu	v0,v0,v1
     cac:	ac820000 	sw	v0,0(a0)
     cb0:	8fa40000 	lw	a0,0(sp)
     cb4:	8fa50004 	lw	a1,4(sp)
     cb8:	8fa20008 	lw	v0,8(sp)
     cbc:	8fa3000c 	lw	v1,12(sp)
     cc0:	8fbf0010 	lw	ra,16(sp)
     cc4:	27bd0014 	addiu	sp,sp,20
     cc8:	42000018 	eret
     ccc:	03e00008 	jr	ra
     cd0:	00000000 	sll	zero,zero,0x0
     cd4:	42000018 	eret
     cd8:	03e00008 	jr	ra
     cdc:	00000000 	sll	zero,zero,0x0
     ce0:	401a6800 	mfc0	k0,c0_cause
     ce4:	201b0001 	addi	k1,zero,1
     ce8:	175b0003 	bne	k0,k1,0xcf8
     cec:	00000000 	sll	zero,zero,0x0
     cf0:	08000255 	j	0x954
     cf4:	00000000 	sll	zero,zero,0x0
     cf8:	201b0002 	addi	k1,zero,2
     cfc:	175b0003 	bne	k0,k1,0xd0c
     d00:	00000000 	sll	zero,zero,0x0
     d04:	08000282 	j	0xa08
     d08:	00000000 	sll	zero,zero,0x0
     d0c:	201b0004 	addi	k1,zero,4
     d10:	175b0003 	bne	k0,k1,0xd20
     d14:	00000000 	sll	zero,zero,0x0
     d18:	08000307 	j	0xc1c
     d1c:	00000000 	sll	zero,zero,0x0
     d20:	201b0008 	addi	k1,zero,8
     d24:	175b0003 	bne	k0,k1,0xd34
     d28:	00000000 	sll	zero,zero,0x0
     d2c:	08000335 	j	0xcd4
     d30:	00000000 	sll	zero,zero,0x0
     d34:	42000018 	eret
     d38:	03e00008 	jr	ra
     d3c:	00000000 	sll	zero,zero,0x0
     d40:	10c0000a 	beqz	a2,0xd6c
     d44:	00000000 	sll	zero,zero,0x0
     d48:	00063080 	sll	a2,a2,0x2
     d4c:	00001021 	addu	v0,zero,zero
     d50:	00a21821 	addu	v1,a1,v0
     d54:	8c670000 	lw	a3,0(v1)
     d58:	00821821 	addu	v1,a0,v0
     d5c:	ac670000 	sw	a3,0(v1)
     d60:	24420004 	addiu	v0,v0,4
     d64:	1446fffa 	bne	v0,a2,0xd50
     d68:	00000000 	sll	zero,zero,0x0
     d6c:	03e00008 	jr	ra
     d70:	00000000 	sll	zero,zero,0x0
     d74:	24030001 	addiu	v1,zero,1
     d78:	24090002 	addiu	t1,zero,2
     d7c:	240a0003 	addiu	t2,zero,3
     d80:	00004021 	addu	t0,zero,zero
     d84:	00081082 	srl	v0,t0,0x2
     d88:	00021080 	sll	v0,v0,0x2
     d8c:	00821021 	addu	v0,a0,v0
     d90:	8c420000 	lw	v0,0(v0)
     d94:	0002f002 	srl	s8,v0,0x0
     d98:	33de00ff 	andi	s8,s8,0xff
     d9c:	acbe0000 	sw	s8,0(a1)
     da0:	8ca20000 	lw	v0,0(a1)
     da4:	10400033 	beqz	v0,0xe74
     da8:	00000000 	sll	zero,zero,0x0
     dac:	0066102b 	sltu	v0,v1,a2
     db0:	10400030 	beqz	v0,0xe74
     db4:	00000000 	sll	zero,zero,0x0
     db8:	00031082 	srl	v0,v1,0x2
     dbc:	00021080 	sll	v0,v0,0x2
     dc0:	00821021 	addu	v0,a0,v0
     dc4:	8c420000 	lw	v0,0(v0)
     dc8:	0002f202 	srl	s8,v0,0x8
     dcc:	33de00ff 	andi	s8,s8,0xff
     dd0:	24a20004 	addiu	v0,a1,4
     dd4:	ac5e0000 	sw	s8,0(v0)
     dd8:	8ca20004 	lw	v0,4(a1)
     ddc:	10400025 	beqz	v0,0xe74
     de0:	00000000 	sll	zero,zero,0x0
     de4:	0126102b 	sltu	v0,t1,a2
     de8:	10400022 	beqz	v0,0xe74
     dec:	00000000 	sll	zero,zero,0x0
     df0:	00091082 	srl	v0,t1,0x2
     df4:	00021080 	sll	v0,v0,0x2
     df8:	00821021 	addu	v0,a0,v0
     dfc:	8c420000 	lw	v0,0(v0)
     e00:	0002f402 	srl	s8,v0,0x10
     e04:	33de00ff 	andi	s8,s8,0xff
     e08:	24a20008 	addiu	v0,a1,8
     e0c:	ac5e0000 	sw	s8,0(v0)
     e10:	8ca20008 	lw	v0,8(a1)
     e14:	10400017 	beqz	v0,0xe74
     e18:	00000000 	sll	zero,zero,0x0
     e1c:	0146102b 	sltu	v0,t2,a2
     e20:	10400014 	beqz	v0,0xe74
     e24:	00000000 	sll	zero,zero,0x0
     e28:	000a1082 	srl	v0,t2,0x2
     e2c:	00021080 	sll	v0,v0,0x2
     e30:	00821021 	addu	v0,a0,v0
     e34:	8c420000 	lw	v0,0(v0)
     e38:	0002f602 	srl	s8,v0,0x18
     e3c:	33de00ff 	andi	s8,s8,0xff
     e40:	24a2000c 	addiu	v0,a1,12
     e44:	ac5e0000 	sw	s8,0(v0)
     e48:	8ca2000c 	lw	v0,12(a1)
     e4c:	10400009 	beqz	v0,0xe74
     e50:	00000000 	sll	zero,zero,0x0
     e54:	25080004 	addiu	t0,t0,4
     e58:	24a50010 	addiu	a1,a1,16
     e5c:	254a0004 	addiu	t2,t2,4
     e60:	25290004 	addiu	t1,t1,4
     e64:	24630004 	addiu	v1,v1,4
     e68:	0106102b 	sltu	v0,t0,a2
     e6c:	1440ffc5 	bnez	v0,0xd84
     e70:	00000000 	sll	zero,zero,0x0
     e74:	03e00008 	jr	ra
     e78:	00000000 	sll	zero,zero,0x0
     e7c:	24090001 	addiu	t1,zero,1
     e80:	240b0002 	addiu	t3,zero,2
     e84:	240c0003 	addiu	t4,zero,3
     e88:	00005021 	addu	t2,zero,zero
     e8c:	000a1082 	srl	v0,t2,0x2
     e90:	00021080 	sll	v0,v0,0x2
     e94:	00a21021 	addu	v0,a1,v0
     e98:	ac400000 	sw	zero,0(v0)
     e9c:	8c870000 	lw	a3,0(a0)
     ea0:	ac470000 	sw	a3,0(v0)
     ea4:	8c820000 	lw	v0,0(a0)
     ea8:	10400033 	beqz	v0,0xf78
     eac:	00000000 	sll	zero,zero,0x0
     eb0:	0126102b 	sltu	v0,t1,a2
     eb4:	10400030 	beqz	v0,0xf78
     eb8:	00000000 	sll	zero,zero,0x0
     ebc:	00091082 	srl	v0,t1,0x2
     ec0:	00021080 	sll	v0,v0,0x2
     ec4:	00a21021 	addu	v0,a1,v0
     ec8:	8c870004 	lw	a3,4(a0)
     ecc:	00074200 	sll	t0,a3,0x8
     ed0:	8c470000 	lw	a3,0(v0)
     ed4:	00e83821 	addu	a3,a3,t0
     ed8:	ac470000 	sw	a3,0(v0)
     edc:	8c820004 	lw	v0,4(a0)
     ee0:	10400025 	beqz	v0,0xf78
     ee4:	00000000 	sll	zero,zero,0x0
     ee8:	0166102b 	sltu	v0,t3,a2
     eec:	10400022 	beqz	v0,0xf78
     ef0:	00000000 	sll	zero,zero,0x0
     ef4:	000b1082 	srl	v0,t3,0x2
     ef8:	00021080 	sll	v0,v0,0x2
     efc:	00a21021 	addu	v0,a1,v0
     f00:	8c870008 	lw	a3,8(a0)
     f04:	00074400 	sll	t0,a3,0x10
     f08:	8c470000 	lw	a3,0(v0)
     f0c:	00e83821 	addu	a3,a3,t0
     f10:	ac470000 	sw	a3,0(v0)
     f14:	8c820008 	lw	v0,8(a0)
     f18:	10400017 	beqz	v0,0xf78
     f1c:	00000000 	sll	zero,zero,0x0
     f20:	0186102b 	sltu	v0,t4,a2
     f24:	10400014 	beqz	v0,0xf78
     f28:	00000000 	sll	zero,zero,0x0
     f2c:	000c1082 	srl	v0,t4,0x2
     f30:	00021080 	sll	v0,v0,0x2
     f34:	00a21021 	addu	v0,a1,v0
     f38:	8c87000c 	lw	a3,12(a0)
     f3c:	00074600 	sll	t0,a3,0x18
     f40:	8c470000 	lw	a3,0(v0)
     f44:	00e83821 	addu	a3,a3,t0
     f48:	ac470000 	sw	a3,0(v0)
     f4c:	8c82000c 	lw	v0,12(a0)
     f50:	10400009 	beqz	v0,0xf78
     f54:	00000000 	sll	zero,zero,0x0
     f58:	254a0004 	addiu	t2,t2,4
     f5c:	24840010 	addiu	a0,a0,16
     f60:	258c0004 	addiu	t4,t4,4
     f64:	256b0004 	addiu	t3,t3,4
     f68:	25290004 	addiu	t1,t1,4
     f6c:	0146102b 	sltu	v0,t2,a2
     f70:	1440ffc6 	bnez	v0,0xe8c
     f74:	00000000 	sll	zero,zero,0x0
     f78:	03e00008 	jr	ra
     f7c:	00000000 	sll	zero,zero,0x0
     f80:	10c00028 	beqz	a2,0x1024
     f84:	00000000 	sll	zero,zero,0x0
     f88:	8c820000 	lw	v0,0(a0)
     f8c:	304300ff 	andi	v1,v0,0xff
     f90:	8ca80000 	lw	t0,0(a1)
     f94:	310700ff 	andi	a3,t0,0xff
     f98:	00481025 	or	v0,v0,t0
     f9c:	304200ff 	andi	v0,v0,0xff
     fa0:	10400023 	beqz	v0,0x1030
     fa4:	00000000 	sll	zero,zero,0x0
     fa8:	24840004 	addiu	a0,a0,4
     fac:	24a50004 	addiu	a1,a1,4
     fb0:	00004021 	addu	t0,zero,zero
     fb4:	080003f9 	j	0xfe4
     fb8:	00000000 	sll	zero,zero,0x0
     fbc:	8c890000 	lw	t1,0(a0)
     fc0:	312300ff 	andi	v1,t1,0xff
     fc4:	8ca20000 	lw	v0,0(a1)
     fc8:	304700ff 	andi	a3,v0,0xff
     fcc:	24840004 	addiu	a0,a0,4
     fd0:	24a50004 	addiu	a1,a1,4
     fd4:	00491025 	or	v0,v0,t1
     fd8:	304200ff 	andi	v0,v0,0xff
     fdc:	10400017 	beqz	v0,0x103c
     fe0:	00000000 	sll	zero,zero,0x0
     fe4:	14600005 	bnez	v1,0xffc
     fe8:	00000000 	sll	zero,zero,0x0
     fec:	10e00007 	beqz	a3,0x100c
     ff0:	00000000 	sll	zero,zero,0x0
     ff4:	08000412 	j	0x1048
     ff8:	00000000 	sll	zero,zero,0x0
     ffc:	10e00015 	beqz	a3,0x1054
    1000:	00000000 	sll	zero,zero,0x0
    1004:	14670016 	bne	v1,a3,0x1060
    1008:	00000000 	sll	zero,zero,0x0
    100c:	25080001 	addiu	t0,t0,1
    1010:	1506ffea 	bne	t0,a2,0xfbc
    1014:	00000000 	sll	zero,zero,0x0
    1018:	24020001 	addiu	v0,zero,1
    101c:	03e00008 	jr	ra
    1020:	00000000 	sll	zero,zero,0x0
    1024:	24020001 	addiu	v0,zero,1
    1028:	03e00008 	jr	ra
    102c:	00000000 	sll	zero,zero,0x0
    1030:	24020001 	addiu	v0,zero,1
    1034:	03e00008 	jr	ra
    1038:	00000000 	sll	zero,zero,0x0
    103c:	24020001 	addiu	v0,zero,1
    1040:	03e00008 	jr	ra
    1044:	00000000 	sll	zero,zero,0x0
    1048:	00001021 	addu	v0,zero,zero
    104c:	03e00008 	jr	ra
    1050:	00000000 	sll	zero,zero,0x0
    1054:	00001021 	addu	v0,zero,zero
    1058:	03e00008 	jr	ra
    105c:	00000000 	sll	zero,zero,0x0
    1060:	00001021 	addu	v0,zero,zero
    1064:	03e00008 	jr	ra
    1068:	00000000 	sll	zero,zero,0x0
    106c:	27bdfff8 	addiu	sp,sp,-8
    1070:	afa00000 	sw	zero,0(sp)
    1074:	afa00004 	sw	zero,4(sp)
    1078:	8fa20000 	lw	v0,0(sp)
    107c:	0045102b 	sltu	v0,v0,a1
    1080:	1040000b 	beqz	v0,0x10b0
    1084:	00000000 	sll	zero,zero,0x0
    1088:	8fa20004 	lw	v0,4(sp)
    108c:	00821021 	addu	v0,a0,v0
    1090:	afa20004 	sw	v0,4(sp)
    1094:	8fa20000 	lw	v0,0(sp)
    1098:	24420001 	addiu	v0,v0,1
    109c:	afa20000 	sw	v0,0(sp)
    10a0:	8fa20000 	lw	v0,0(sp)
    10a4:	0045102b 	sltu	v0,v0,a1
    10a8:	1440fff7 	bnez	v0,0x1088
    10ac:	00000000 	sll	zero,zero,0x0
    10b0:	8fa20004 	lw	v0,4(sp)
    10b4:	27bd0008 	addiu	sp,sp,8
    10b8:	03e00008 	jr	ra
    10bc:	00000000 	sll	zero,zero,0x0
    10c0:	0085102b 	sltu	v0,a0,a1
    10c4:	14400009 	bnez	v0,0x10ec
    10c8:	00000000 	sll	zero,zero,0x0
    10cc:	00001021 	addu	v0,zero,zero
    10d0:	00852023 	subu	a0,a0,a1
    10d4:	24420001 	addiu	v0,v0,1
    10d8:	0085182b 	sltu	v1,a0,a1
    10dc:	1060fffc 	beqz	v1,0x10d0
    10e0:	00000000 	sll	zero,zero,0x0
    10e4:	03e00008 	jr	ra
    10e8:	00000000 	sll	zero,zero,0x0
    10ec:	00001021 	addu	v0,zero,zero
    10f0:	03e00008 	jr	ra
    10f4:	00000000 	sll	zero,zero,0x0
    10f8:	00801021 	addu	v0,a0,zero
    10fc:	0085182b 	sltu	v1,a0,a1
    1100:	14600005 	bnez	v1,0x1118
    1104:	00000000 	sll	zero,zero,0x0
    1108:	00451023 	subu	v0,v0,a1
    110c:	0045182b 	sltu	v1,v0,a1
    1110:	1060fffd 	beqz	v1,0x1108
    1114:	00000000 	sll	zero,zero,0x0
    1118:	03e00008 	jr	ra
    111c:	00000000 	sll	zero,zero,0x0
    1120:	2482ffff 	addiu	v0,a0,-1
    1124:	10800006 	beqz	a0,0x1140
    1128:	00000000 	sll	zero,zero,0x0
    112c:	2403ffff 	addiu	v1,zero,-1
    1130:	00000000 	sll	zero,zero,0x0
    1134:	2442ffff 	addiu	v0,v0,-1
    1138:	1443fffd 	bne	v0,v1,0x1130
    113c:	00000000 	sll	zero,zero,0x0
    1140:	03e00008 	jr	ra
    1144:	00000000 	sll	zero,zero,0x0
    1148:	27bdfffc 	addiu	sp,sp,-4
    114c:	afbf0000 	sw	ra,0(sp)
    1150:	2002000c 	addi	v0,zero,12
    1154:	0000000c 	syscall
    1158:	00041020 	add	v0,zero,a0
    115c:	8fbf0000 	lw	ra,0(sp)
    1160:	27bd0004 	addiu	sp,sp,4
    1164:	03e00008 	jr	ra
    1168:	00000000 	sll	zero,zero,0x0
    116c:	308400ff 	andi	a0,a0,0xff
    1170:	27bdfffc 	addiu	sp,sp,-4
    1174:	afbf0000 	sw	ra,0(sp)
    1178:	00852821 	addu	a1,a0,a1
    117c:	00052020 	add	a0,zero,a1
    1180:	2002000b 	addi	v0,zero,11
    1184:	0000000c 	syscall
    1188:	8fbf0000 	lw	ra,0(sp)
    118c:	27bd0004 	addiu	sp,sp,4
    1190:	03e00008 	jr	ra
    1194:	00000000 	sll	zero,zero,0x0
    1198:	8c820000 	lw	v0,0(a0)
    119c:	10400009 	beqz	v0,0x11c4
    11a0:	00000000 	sll	zero,zero,0x0
    11a4:	00801821 	addu	v1,a0,zero
    11a8:	304200ff 	andi	v0,v0,0xff
    11ac:	00a21021 	addu	v0,a1,v0
    11b0:	ac620000 	sw	v0,0(v1)
    11b4:	24630004 	addiu	v1,v1,4
    11b8:	8c620000 	lw	v0,0(v1)
    11bc:	1440fffa 	bnez	v0,0x11a8
    11c0:	00000000 	sll	zero,zero,0x0
    11c4:	27bdfffc 	addiu	sp,sp,-4
    11c8:	afbf0000 	sw	ra,0(sp)
    11cc:	00042020 	add	a0,zero,a0
    11d0:	20020004 	addi	v0,zero,4
    11d4:	0000000c 	syscall
    11d8:	8fbf0000 	lw	ra,0(sp)
    11dc:	27bd0004 	addiu	sp,sp,4
    11e0:	03e00008 	jr	ra
    11e4:	00000000 	sll	zero,zero,0x0
    11e8:	27bdfffc 	addiu	sp,sp,-4
    11ec:	afbf0000 	sw	ra,0(sp)
    11f0:	00042020 	add	a0,zero,a0
    11f4:	20020001 	addi	v0,zero,1
    11f8:	0000000c 	syscall
    11fc:	8fbf0000 	lw	ra,0(sp)
    1200:	27bd0004 	addiu	sp,sp,4
    1204:	03e00008 	jr	ra
    1208:	00000000 	sll	zero,zero,0x0
    120c:	8c820000 	lw	v0,0(a0)
    1210:	2403002e 	addiu	v1,zero,46
    1214:	14430043 	bne	v0,v1,0x1324
    1218:	00000000 	sll	zero,zero,0x0
    121c:	0800048f 	j	0x123c
    1220:	00000000 	sll	zero,zero,0x0
    1224:	00833821 	addu	a3,a0,v1
    1228:	8ce70000 	lw	a3,0(a3)
    122c:	14e90009 	bne	a3,t1,0x1254
    1230:	00000000 	sll	zero,zero,0x0
    1234:	08000491 	j	0x1244
    1238:	00000000 	sll	zero,zero,0x0
    123c:	00001821 	addu	v1,zero,zero
    1240:	00001021 	addu	v0,zero,zero
    1244:	00a31821 	addu	v1,a1,v1
    1248:	ac600000 	sw	zero,0(v1)
    124c:	0800049b 	j	0x126c
    1250:	00000000 	sll	zero,zero,0x0
    1254:	00a34021 	addu	t0,a1,v1
    1258:	ad070000 	sw	a3,0(t0)
    125c:	24420001 	addiu	v0,v0,1
    1260:	24630004 	addiu	v1,v1,4
    1264:	144affef 	bne	v0,t2,0x1224
    1268:	00000000 	sll	zero,zero,0x0
    126c:	24420001 	addiu	v0,v0,1
    1270:	00021080 	sll	v0,v0,0x2
    1274:	00821821 	addu	v1,a0,v0
    1278:	8c650000 	lw	a1,0(v1)
    127c:	acc50000 	sw	a1,0(a2)
    1280:	8c630000 	lw	v1,0(v1)
    1284:	1060000b 	beqz	v1,0x12b4
    1288:	00000000 	sll	zero,zero,0x0
    128c:	2405000d 	addiu	a1,zero,13
    1290:	1465000f 	bne	v1,a1,0x12d0
    1294:	00000000 	sll	zero,zero,0x0
    1298:	080004b0 	j	0x12c0
    129c:	00000000 	sll	zero,zero,0x0
    12a0:	2403000d 	addiu	v1,zero,13
    12a4:	14430026 	bne	v0,v1,0x1340
    12a8:	00000000 	sll	zero,zero,0x0
    12ac:	080004b1 	j	0x12c4
    12b0:	00000000 	sll	zero,zero,0x0
    12b4:	00c02821 	addu	a1,a2,zero
    12b8:	080004b1 	j	0x12c4
    12bc:	00000000 	sll	zero,zero,0x0
    12c0:	00c02821 	addu	a1,a2,zero
    12c4:	aca00000 	sw	zero,0(a1)
    12c8:	03e00008 	jr	ra
    12cc:	00000000 	sll	zero,zero,0x0
    12d0:	24c50004 	addiu	a1,a2,4
    12d4:	24430004 	addiu	v1,v0,4
    12d8:	00831821 	addu	v1,a0,v1
    12dc:	8c670000 	lw	a3,0(v1)
    12e0:	acc70004 	sw	a3,4(a2)
    12e4:	8c630000 	lw	v1,0(v1)
    12e8:	1060fff6 	beqz	v1,0x12c4
    12ec:	00000000 	sll	zero,zero,0x0
    12f0:	2407000d 	addiu	a3,zero,13
    12f4:	1067fff3 	beq	v1,a3,0x12c4
    12f8:	00000000 	sll	zero,zero,0x0
    12fc:	24c50008 	addiu	a1,a2,8
    1300:	24420008 	addiu	v0,v0,8
    1304:	00821021 	addu	v0,a0,v0
    1308:	8c430000 	lw	v1,0(v0)
    130c:	acc30008 	sw	v1,8(a2)
    1310:	8c420000 	lw	v0,0(v0)
    1314:	1440ffe2 	bnez	v0,0x12a0
    1318:	00000000 	sll	zero,zero,0x0
    131c:	080004b1 	j	0x12c4
    1320:	00000000 	sll	zero,zero,0x0
    1324:	aca20000 	sw	v0,0(a1)
    1328:	24030004 	addiu	v1,zero,4
    132c:	24020001 	addiu	v0,zero,1
    1330:	2409002e 	addiu	t1,zero,46
    1334:	240a0008 	addiu	t2,zero,8
    1338:	08000489 	j	0x1224
    133c:	00000000 	sll	zero,zero,0x0
    1340:	03e00008 	jr	ra
    1344:	00000000 	sll	zero,zero,0x0
    1348:	27bdfffc 	addiu	sp,sp,-4
    134c:	afbf0000 	sw	ra,0(sp)
    1350:	00042020 	add	a0,zero,a0
    1354:	2002000f 	addi	v0,zero,15
    1358:	0000000c 	syscall
    135c:	8fbf0000 	lw	ra,0(sp)
    1360:	27bd0004 	addiu	sp,sp,4
    1364:	03e00008 	jr	ra
    1368:	00000000 	sll	zero,zero,0x0
    136c:	27bdffe8 	addiu	sp,sp,-24
    1370:	afbf0014 	sw	ra,20(sp)
    1374:	afb00010 	sw	s0,16(sp)
    1378:	00808021 	addu	s0,a0,zero
    137c:	94047a00 	lhu	a0,31232(zero)
    1380:	14900007 	bne	a0,s0,0x13a0
    1384:	00000000 	sll	zero,zero,0x0
    1388:	94037a06 	lhu	v1,31238(zero)
    138c:	24020001 	addiu	v0,zero,1
    1390:	14620009 	bne	v1,v0,0x13b8
    1394:	00000000 	sll	zero,zero,0x0
    1398:	080004f5 	j	0x13d4
    139c:	00000000 	sll	zero,zero,0x0
    13a0:	94037a06 	lhu	v1,31238(zero)
    13a4:	24020001 	addiu	v0,zero,1
    13a8:	14620003 	bne	v1,v0,0x13b8
    13ac:	00000000 	sll	zero,zero,0x0
    13b0:	0c0004d2 	jal	0x1348
    13b4:	00000000 	sll	zero,zero,0x0
    13b8:	3c04000f 	lui	a0,0xf
    13bc:	24844240 	addiu	a0,a0,16960
    13c0:	0c000448 	jal	0x1120
    13c4:	00000000 	sll	zero,zero,0x0
    13c8:	00102020 	add	a0,zero,s0
    13cc:	2002000e 	addi	v0,zero,14
    13d0:	0000000c 	syscall
    13d4:	8fbf0014 	lw	ra,20(sp)
    13d8:	8fb00010 	lw	s0,16(sp)
    13dc:	27bd0018 	addiu	sp,sp,24
    13e0:	03e00008 	jr	ra
    13e4:	00000000 	sll	zero,zero,0x0
    13e8:	27bdffe8 	addiu	sp,sp,-24
    13ec:	afbf0014 	sw	ra,20(sp)
    13f0:	afb00010 	sw	s0,16(sp)
    13f4:	ac000134 	sw	zero,308(zero)
    13f8:	ac000138 	sw	zero,312(zero)
    13fc:	00001021 	addu	v0,zero,zero
    1400:	0002f400 	sll	s8,v0,0x10
    1404:	0002e280 	sll	gp,v0,0xa
    1408:	03dcf020 	add	s8,s8,gp
    140c:	2402ff00 	addiu	v0,zero,-256
    1410:	ac5e0000 	sw	s8,0(v0)
    1414:	241004b0 	addiu	s0,zero,1200
    1418:	24040020 	addiu	a0,zero,32
    141c:	00002821 	addu	a1,zero,zero
    1420:	0c00045b 	jal	0x116c
    1424:	00000000 	sll	zero,zero,0x0
    1428:	2610ffff 	addiu	s0,s0,-1
    142c:	1600fffa 	bnez	s0,0x1418
    1430:	00000000 	sll	zero,zero,0x0
    1434:	ac000134 	sw	zero,308(zero)
    1438:	ac000138 	sw	zero,312(zero)
    143c:	00001021 	addu	v0,zero,zero
    1440:	0002f400 	sll	s8,v0,0x10
    1444:	0002e280 	sll	gp,v0,0xa
    1448:	03dcf020 	add	s8,s8,gp
    144c:	2402ff00 	addiu	v0,zero,-256
    1450:	ac5e0000 	sw	s8,0(v0)
    1454:	8fbf0014 	lw	ra,20(sp)
    1458:	8fb00010 	lw	s0,16(sp)
    145c:	27bd0018 	addiu	sp,sp,24
    1460:	03e00008 	jr	ra
    1464:	00000000 	sll	zero,zero,0x0
    1468:	27bdffe8 	addiu	sp,sp,-24
    146c:	afbf0014 	sw	ra,20(sp)
    1470:	ac007f00 	sw	zero,32512(zero)
    1474:	ac000134 	sw	zero,308(zero)
    1478:	ac000138 	sw	zero,312(zero)
    147c:	ac00013c 	sw	zero,316(zero)
    1480:	24020730 	addiu	v0,zero,1840
    1484:	ac0200f4 	sw	v0,244(zero)
    1488:	24020731 	addiu	v0,zero,1841
    148c:	ac0200f8 	sw	v0,248(zero)
    1490:	24020732 	addiu	v0,zero,1842
    1494:	ac0200fc 	sw	v0,252(zero)
    1498:	24020733 	addiu	v0,zero,1843
    149c:	ac020100 	sw	v0,256(zero)
    14a0:	24020734 	addiu	v0,zero,1844
    14a4:	ac020104 	sw	v0,260(zero)
    14a8:	24020735 	addiu	v0,zero,1845
    14ac:	ac020108 	sw	v0,264(zero)
    14b0:	24020736 	addiu	v0,zero,1846
    14b4:	ac02010c 	sw	v0,268(zero)
    14b8:	24020737 	addiu	v0,zero,1847
    14bc:	ac020110 	sw	v0,272(zero)
    14c0:	24020738 	addiu	v0,zero,1848
    14c4:	ac020114 	sw	v0,276(zero)
    14c8:	24020739 	addiu	v0,zero,1849
    14cc:	ac020118 	sw	v0,280(zero)
    14d0:	24020761 	addiu	v0,zero,1889
    14d4:	ac02011c 	sw	v0,284(zero)
    14d8:	24020762 	addiu	v0,zero,1890
    14dc:	ac020120 	sw	v0,288(zero)
    14e0:	24020763 	addiu	v0,zero,1891
    14e4:	ac020124 	sw	v0,292(zero)
    14e8:	24020764 	addiu	v0,zero,1892
    14ec:	ac020128 	sw	v0,296(zero)
    14f0:	24020765 	addiu	v0,zero,1893
    14f4:	ac02012c 	sw	v0,300(zero)
    14f8:	24030766 	addiu	v1,zero,1894
    14fc:	ac030130 	sw	v1,304(zero)
    1500:	24030743 	addiu	v1,zero,1859
    1504:	ac03001c 	sw	v1,28(zero)
    1508:	2403076f 	addiu	v1,zero,1903
    150c:	ac030020 	sw	v1,32(zero)
    1510:	2404076e 	addiu	a0,zero,1902
    1514:	ac040024 	sw	a0,36(zero)
    1518:	24040773 	addiu	a0,zero,1907
    151c:	ac040028 	sw	a0,40(zero)
    1520:	ac03002c 	sw	v1,44(zero)
    1524:	2404076c 	addiu	a0,zero,1900
    1528:	ac040030 	sw	a0,48(zero)
    152c:	ac020034 	sw	v0,52(zero)
    1530:	2402073e 	addiu	v0,zero,1854
    1534:	ac020038 	sw	v0,56(zero)
    1538:	ac02003c 	sw	v0,60(zero)
    153c:	ac000040 	sw	zero,64(zero)
    1540:	24020745 	addiu	v0,zero,1861
    1544:	ac020044 	sw	v0,68(zero)
    1548:	24020772 	addiu	v0,zero,1906
    154c:	ac020048 	sw	v0,72(zero)
    1550:	ac02004c 	sw	v0,76(zero)
    1554:	ac030050 	sw	v1,80(zero)
    1558:	ac020054 	sw	v0,84(zero)
    155c:	24020721 	addiu	v0,zero,1825
    1560:	ac020058 	sw	v0,88(zero)
    1564:	ac00005c 	sw	zero,92(zero)
    1568:	24060064 	addiu	a2,zero,100
    156c:	ac060060 	sw	a2,96(zero)
    1570:	24070069 	addiu	a3,zero,105
    1574:	acc70000 	sw	a3,0(a2)
    1578:	24080068 	addiu	t0,zero,104
    157c:	24090072 	addiu	t1,zero,114
    1580:	ad090000 	sw	t1,0(t0)
    1584:	2404006c 	addiu	a0,zero,108
    1588:	ac800000 	sw	zero,0(a0)
    158c:	24020070 	addiu	v0,zero,112
    1590:	24030074 	addiu	v1,zero,116
    1594:	ac430000 	sw	v1,0(v0)
    1598:	24050079 	addiu	a1,zero,121
    159c:	ac650000 	sw	a1,0(v1)
    15a0:	24050078 	addiu	a1,zero,120
    15a4:	aca20000 	sw	v0,0(a1)
    15a8:	24020065 	addiu	v0,zero,101
    15ac:	ac02007c 	sw	v0,124(zero)
    15b0:	ac000080 	sw	zero,128(zero)
    15b4:	ac090084 	sw	t1,132(zero)
    15b8:	ac020088 	sw	v0,136(zero)
    15bc:	2409006e 	addiu	t1,zero,110
    15c0:	ac09008c 	sw	t1,140(zero)
    15c4:	ac000090 	sw	zero,144(zero)
    15c8:	ac020094 	sw	v0,148(zero)
    15cc:	ac050098 	sw	a1,152(zero)
    15d0:	ac07009c 	sw	a3,156(zero)
    15d4:	ac0300a0 	sw	v1,160(zero)
    15d8:	ac0000a4 	sw	zero,164(zero)
    15dc:	ac0600a8 	sw	a2,168(zero)
    15e0:	ac0200ac 	sw	v0,172(zero)
    15e4:	ac0400b0 	sw	a0,176(zero)
    15e8:	ac0000b4 	sw	zero,180(zero)
    15ec:	ac0300b8 	sw	v1,184(zero)
    15f0:	2406006f 	addiu	a2,zero,111
    15f4:	ac0600bc 	sw	a2,188(zero)
    15f8:	24030075 	addiu	v1,zero,117
    15fc:	ac0300c0 	sw	v1,192(zero)
    1600:	24070063 	addiu	a3,zero,99
    1604:	ac0700c4 	sw	a3,196(zero)
    1608:	ac0800c8 	sw	t0,200(zero)
    160c:	ac0000cc 	sw	zero,204(zero)
    1610:	ac0200d0 	sw	v0,208(zero)
    1614:	ac0500d4 	sw	a1,212(zero)
    1618:	ac0200d8 	sw	v0,216(zero)
    161c:	ac0700dc 	sw	a3,220(zero)
    1620:	ac0000e0 	sw	zero,224(zero)
    1624:	ac0400e4 	sw	a0,228(zero)
    1628:	ac0600e8 	sw	a2,232(zero)
    162c:	ac0300ec 	sw	v1,236(zero)
    1630:	ac0000f0 	sw	zero,240(zero)
    1634:	0c0004fa 	jal	0x13e8
    1638:	00000000 	sll	zero,zero,0x0
    163c:	201e00ff 	addi	s8,zero,255
    1640:	409e5800 	mtc0	s8,c0_compare
    1644:	8fbf0014 	lw	ra,20(sp)
    1648:	27bd0018 	addiu	sp,sp,24
    164c:	03e00008 	jr	ra
    1650:	00000000 	sll	zero,zero,0x0
    1654:	27bdff70 	addiu	sp,sp,-144
    1658:	afbf008c 	sw	ra,140(sp)
    165c:	afb30088 	sw	s3,136(sp)
    1660:	afb20084 	sw	s2,132(sp)
    1664:	afb10080 	sw	s1,128(sp)
    1668:	afb0007c 	sw	s0,124(sp)
    166c:	27a50010 	addiu	a1,sp,16
    1670:	27a60034 	addiu	a2,sp,52
    1674:	0c000483 	jal	0x120c
    1678:	00000000 	sll	zero,zero,0x0
    167c:	2413009f 	addiu	s3,zero,159
    1680:	3c120001 	lui	s2,0x1
    1684:	365286a0 	ori	s2,s2,0x86a0
    1688:	02602021 	addu	a0,s3,zero
    168c:	0c0004db 	jal	0x136c
    1690:	00000000 	sll	zero,zero,0x0
    1694:	94027a06 	lhu	v0,31238(zero)
    1698:	1440004b 	bnez	v0,0x17c8
    169c:	00000000 	sll	zero,zero,0x0
    16a0:	02402021 	addu	a0,s2,zero
    16a4:	0c000448 	jal	0x1120
    16a8:	00000000 	sll	zero,zero,0x0
    16ac:	94027a06 	lhu	v0,31238(zero)
    16b0:	1040fffb 	beqz	v0,0x16a0
    16b4:	00000000 	sll	zero,zero,0x0
    16b8:	080005f2 	j	0x17c8
    16bc:	00000000 	sll	zero,zero,0x0
    16c0:	02002021 	addu	a0,s0,zero
    16c4:	27a50044 	addiu	a1,sp,68
    16c8:	24060008 	addiu	a2,zero,8
    16cc:	0c00035d 	jal	0xd74
    16d0:	00000000 	sll	zero,zero,0x0
    16d4:	26040008 	addiu	a0,s0,8
    16d8:	27a50068 	addiu	a1,sp,104
    16dc:	24060003 	addiu	a2,zero,3
    16e0:	0c00035d 	jal	0xd74
    16e4:	00000000 	sll	zero,zero,0x0
    16e8:	27a40044 	addiu	a0,sp,68
    16ec:	27a50010 	addiu	a1,sp,16
    16f0:	24060008 	addiu	a2,zero,8
    16f4:	0c0003e0 	jal	0xf80
    16f8:	00000000 	sll	zero,zero,0x0
    16fc:	14510008 	bne	v0,s1,0x1720
    1700:	00000000 	sll	zero,zero,0x0
    1704:	27a40068 	addiu	a0,sp,104
    1708:	27a50034 	addiu	a1,sp,52
    170c:	24060003 	addiu	a2,zero,3
    1710:	0c0003e0 	jal	0xf80
    1714:	00000000 	sll	zero,zero,0x0
    1718:	10510016 	beq	v0,s1,0x1774
    171c:	00000000 	sll	zero,zero,0x0
    1720:	26100020 	addiu	s0,s0,32
    1724:	24027c08 	addiu	v0,zero,31752
    1728:	1602ffe5 	bne	s0,v0,0x16c0
    172c:	00000000 	sll	zero,zero,0x0
    1730:	26730001 	addiu	s3,s3,1
    1734:	240200bf 	addiu	v0,zero,191
    1738:	1662ffd3 	bne	s3,v0,0x1688
    173c:	00000000 	sll	zero,zero,0x0
    1740:	24040044 	addiu	a0,zero,68
    1744:	24050400 	addiu	a1,zero,1024
    1748:	0c000466 	jal	0x1198
    174c:	00000000 	sll	zero,zero,0x0
    1750:	2404000d 	addiu	a0,zero,13
    1754:	24050700 	addiu	a1,zero,1792
    1758:	0c00045b 	jal	0x116c
    175c:	00000000 	sll	zero,zero,0x0
    1760:	24027a00 	addiu	v0,zero,31232
    1764:	a4400002 	sh	zero,2(v0)
    1768:	a4400004 	sh	zero,4(v0)
    176c:	080005f6 	j	0x17d8
    1770:	00000000 	sll	zero,zero,0x0
    1774:	24117a00 	addiu	s1,zero,31232
    1778:	a6200002 	sh	zero,2(s1)
    177c:	8e02001c 	lw	v0,28(s0)
    1780:	a6220004 	sh	v0,4(s1)
    1784:	9604001a 	lhu	a0,26(s0)
    1788:	248400bd 	addiu	a0,a0,189
    178c:	0c0004db 	jal	0x136c
    1790:	00000000 	sll	zero,zero,0x0
    1794:	96220006 	lhu	v0,6(s1)
    1798:	1440000f 	bnez	v0,0x17d8
    179c:	00000000 	sll	zero,zero,0x0
    17a0:	3c100001 	lui	s0,0x1
    17a4:	361086a0 	ori	s0,s0,0x86a0
    17a8:	02002021 	addu	a0,s0,zero
    17ac:	0c000448 	jal	0x1120
    17b0:	00000000 	sll	zero,zero,0x0
    17b4:	94027a06 	lhu	v0,31238(zero)
    17b8:	1040fffb 	beqz	v0,0x17a8
    17bc:	00000000 	sll	zero,zero,0x0
    17c0:	080005f6 	j	0x17d8
    17c4:	00000000 	sll	zero,zero,0x0
    17c8:	24107a08 	addiu	s0,zero,31240
    17cc:	24110001 	addiu	s1,zero,1
    17d0:	080005b0 	j	0x16c0
    17d4:	00000000 	sll	zero,zero,0x0
    17d8:	8fbf008c 	lw	ra,140(sp)
    17dc:	8fb30088 	lw	s3,136(sp)
    17e0:	8fb20084 	lw	s2,132(sp)
    17e4:	8fb10080 	lw	s1,128(sp)
    17e8:	8fb0007c 	lw	s0,124(sp)
    17ec:	27bd0090 	addiu	sp,sp,144
    17f0:	03e00008 	jr	ra
    17f4:	00000000 	sll	zero,zero,0x0
    17f8:	27bdffa0 	addiu	sp,sp,-96
    17fc:	afbf005c 	sw	ra,92(sp)
    1800:	afb30058 	sw	s3,88(sp)
    1804:	afb20054 	sw	s2,84(sp)
    1808:	afb10050 	sw	s1,80(sp)
    180c:	afb0004c 	sw	s0,76(sp)
    1810:	afa00044 	sw	zero,68(sp)
    1814:	2413009f 	addiu	s3,zero,159
    1818:	3c12000f 	lui	s2,0xf
    181c:	26524240 	addiu	s2,s2,16960
    1820:	02602021 	addu	a0,s3,zero
    1824:	0c0004db 	jal	0x136c
    1828:	00000000 	sll	zero,zero,0x0
    182c:	94037a06 	lhu	v1,31238(zero)
    1830:	24020001 	addiu	v0,zero,1
    1834:	10620036 	beq	v1,v0,0x1910
    1838:	00000000 	sll	zero,zero,0x0
    183c:	24100001 	addiu	s0,zero,1
    1840:	02402021 	addu	a0,s2,zero
    1844:	0c000448 	jal	0x1120
    1848:	00000000 	sll	zero,zero,0x0
    184c:	94027a06 	lhu	v0,31238(zero)
    1850:	1450fffb 	bne	v0,s0,0x1840
    1854:	00000000 	sll	zero,zero,0x0
    1858:	08000644 	j	0x1910
    185c:	00000000 	sll	zero,zero,0x0
    1860:	02002021 	addu	a0,s0,zero
    1864:	27a50010 	addiu	a1,sp,16
    1868:	24060008 	addiu	a2,zero,8
    186c:	0c00035d 	jal	0xd74
    1870:	00000000 	sll	zero,zero,0x0
    1874:	26040008 	addiu	a0,s0,8
    1878:	27a50034 	addiu	a1,sp,52
    187c:	24060003 	addiu	a2,zero,3
    1880:	0c00035d 	jal	0xd74
    1884:	00000000 	sll	zero,zero,0x0
    1888:	27a40010 	addiu	a0,sp,16
    188c:	27a50044 	addiu	a1,sp,68
    1890:	24060008 	addiu	a2,zero,8
    1894:	0c0003e0 	jal	0xf80
    1898:	00000000 	sll	zero,zero,0x0
    189c:	14400013 	bnez	v0,0x18ec
    18a0:	00000000 	sll	zero,zero,0x0
    18a4:	afa00030 	sw	zero,48(sp)
    18a8:	afa00040 	sw	zero,64(sp)
    18ac:	27a40010 	addiu	a0,sp,16
    18b0:	24050200 	addiu	a1,zero,512
    18b4:	0c000466 	jal	0x1198
    18b8:	00000000 	sll	zero,zero,0x0
    18bc:	2404002e 	addiu	a0,zero,46
    18c0:	24050200 	addiu	a1,zero,512
    18c4:	0c00045b 	jal	0x116c
    18c8:	00000000 	sll	zero,zero,0x0
    18cc:	27a40034 	addiu	a0,sp,52
    18d0:	24050200 	addiu	a1,zero,512
    18d4:	0c000466 	jal	0x1198
    18d8:	00000000 	sll	zero,zero,0x0
    18dc:	2404000d 	addiu	a0,zero,13
    18e0:	24050700 	addiu	a1,zero,1792
    18e4:	0c00045b 	jal	0x116c
    18e8:	00000000 	sll	zero,zero,0x0
    18ec:	26100020 	addiu	s0,s0,32
    18f0:	1611ffdb 	bne	s0,s1,0x1860
    18f4:	00000000 	sll	zero,zero,0x0
    18f8:	26730001 	addiu	s3,s3,1
    18fc:	240200bf 	addiu	v0,zero,191
    1900:	1662ffc7 	bne	s3,v0,0x1820
    1904:	00000000 	sll	zero,zero,0x0
    1908:	08000648 	j	0x1920
    190c:	00000000 	sll	zero,zero,0x0
    1910:	24107a08 	addiu	s0,zero,31240
    1914:	24117c08 	addiu	s1,zero,31752
    1918:	08000618 	j	0x1860
    191c:	00000000 	sll	zero,zero,0x0
    1920:	8fbf005c 	lw	ra,92(sp)
    1924:	8fb30058 	lw	s3,88(sp)
    1928:	8fb20054 	lw	s2,84(sp)
    192c:	8fb10050 	lw	s1,80(sp)
    1930:	8fb0004c 	lw	s0,76(sp)
    1934:	27bd0060 	addiu	sp,sp,96
    1938:	03e00008 	jr	ra
    193c:	00000000 	sll	zero,zero,0x0
    1940:	27bdffc8 	addiu	sp,sp,-56
    1944:	afbf0034 	sw	ra,52(sp)
    1948:	afb70030 	sw	s7,48(sp)
    194c:	afb6002c 	sw	s6,44(sp)
    1950:	afb50028 	sw	s5,40(sp)
    1954:	afb40024 	sw	s4,36(sp)
    1958:	afb30020 	sw	s3,32(sp)
    195c:	afb2001c 	sw	s2,28(sp)
    1960:	afb10018 	sw	s1,24(sp)
    1964:	afb00014 	sw	s0,20(sp)
    1968:	8c840004 	lw	a0,4(a0)
    196c:	00002821 	addu	a1,zero,zero
    1970:	00003021 	addu	a2,zero,zero
    1974:	0c000595 	jal	0x1654
    1978:	00000000 	sll	zero,zero,0x0
    197c:	94027a04 	lhu	v0,31236(zero)
    1980:	0002f242 	srl	s8,v0,0x9
    1984:	23d60001 	addi	s6,s8,1
    1988:	12c00069 	beqz	s6,0x1b30
    198c:	00000000 	sll	zero,zero,0x0
    1990:	0000a821 	addu	s5,zero,zero
    1994:	26d7ffff 	addiu	s7,s6,-1
    1998:	24120200 	addiu	s2,zero,512
    199c:	24130001 	addiu	s3,zero,1
    19a0:	3c140001 	lui	s4,0x1
    19a4:	369486a0 	ori	s4,s4,0x86a0
    19a8:	00008821 	addu	s1,zero,zero
    19ac:	16f5001f 	bne	s7,s5,0x1a2c
    19b0:	00000000 	sll	zero,zero,0x0
    19b4:	94027a04 	lhu	v0,31236(zero)
    19b8:	304201ff 	andi	v0,v0,0x1ff
    19bc:	10400059 	beqz	v0,0x1b24
    19c0:	00000000 	sll	zero,zero,0x0
    19c4:	00008021 	addu	s0,zero,zero
    19c8:	8e117a08 	lw	s1,31240(s0)
    19cc:	02202021 	addu	a0,s1,zero
    19d0:	24050700 	addiu	a1,zero,1792
    19d4:	0c00045b 	jal	0x116c
    19d8:	00000000 	sll	zero,zero,0x0
    19dc:	00112202 	srl	a0,s1,0x8
    19e0:	24050700 	addiu	a1,zero,1792
    19e4:	0c00045b 	jal	0x116c
    19e8:	00000000 	sll	zero,zero,0x0
    19ec:	00112402 	srl	a0,s1,0x10
    19f0:	24050700 	addiu	a1,zero,1792
    19f4:	0c00045b 	jal	0x116c
    19f8:	00000000 	sll	zero,zero,0x0
    19fc:	00112602 	srl	a0,s1,0x18
    1a00:	24050700 	addiu	a1,zero,1792
    1a04:	0c00045b 	jal	0x116c
    1a08:	00000000 	sll	zero,zero,0x0
    1a0c:	26100004 	addiu	s0,s0,4
    1a10:	94027a04 	lhu	v0,31236(zero)
    1a14:	304201ff 	andi	v0,v0,0x1ff
    1a18:	0202102b 	sltu	v0,s0,v0
    1a1c:	1440ffea 	bnez	v0,0x19c8
    1a20:	00000000 	sll	zero,zero,0x0
    1a24:	080006c9 	j	0x1b24
    1a28:	00000000 	sll	zero,zero,0x0
    1a2c:	8e307a08 	lw	s0,31240(s1)
    1a30:	02002021 	addu	a0,s0,zero
    1a34:	24050700 	addiu	a1,zero,1792
    1a38:	0c00045b 	jal	0x116c
    1a3c:	00000000 	sll	zero,zero,0x0
    1a40:	00102202 	srl	a0,s0,0x8
    1a44:	24050700 	addiu	a1,zero,1792
    1a48:	0c00045b 	jal	0x116c
    1a4c:	00000000 	sll	zero,zero,0x0
    1a50:	00102402 	srl	a0,s0,0x10
    1a54:	24050700 	addiu	a1,zero,1792
    1a58:	0c00045b 	jal	0x116c
    1a5c:	00000000 	sll	zero,zero,0x0
    1a60:	00102602 	srl	a0,s0,0x18
    1a64:	24050700 	addiu	a1,zero,1792
    1a68:	0c00045b 	jal	0x116c
    1a6c:	00000000 	sll	zero,zero,0x0
    1a70:	26310004 	addiu	s1,s1,4
    1a74:	1632ffed 	bne	s1,s2,0x1a2c
    1a78:	00000000 	sll	zero,zero,0x0
    1a7c:	24117a00 	addiu	s1,zero,31232
    1a80:	96300000 	lhu	s0,0(s1)
    1a84:	2610ff43 	addiu	s0,s0,-189
    1a88:	3210ffff 	andi	s0,s0,0xffff
    1a8c:	00102202 	srl	a0,s0,0x8
    1a90:	3084ffff 	andi	a0,a0,0xffff
    1a94:	24840001 	addiu	a0,a0,1
    1a98:	0c0004db 	jal	0x136c
    1a9c:	00000000 	sll	zero,zero,0x0
    1aa0:	96220006 	lhu	v0,6(s1)
    1aa4:	10530007 	beq	v0,s3,0x1ac4
    1aa8:	00000000 	sll	zero,zero,0x0
    1aac:	02802021 	addu	a0,s4,zero
    1ab0:	0c000448 	jal	0x1120
    1ab4:	00000000 	sll	zero,zero,0x0
    1ab8:	94027a06 	lhu	v0,31238(zero)
    1abc:	1453fffb 	bne	v0,s3,0x1aac
    1ac0:	00000000 	sll	zero,zero,0x0
    1ac4:	02001021 	addu	v0,s0,zero
    1ac8:	2e030100 	sltiu	v1,s0,256
    1acc:	14600006 	bnez	v1,0x1ae8
    1ad0:	00000000 	sll	zero,zero,0x0
    1ad4:	2442ff00 	addiu	v0,v0,-256
    1ad8:	2c430100 	sltiu	v1,v0,256
    1adc:	1060fffd 	beqz	v1,0x1ad4
    1ae0:	00000000 	sll	zero,zero,0x0
    1ae4:	320200ff 	andi	v0,s0,0xff
    1ae8:	00021040 	sll	v0,v0,0x1
    1aec:	94447a08 	lhu	a0,31240(v0)
    1af0:	248400bd 	addiu	a0,a0,189
    1af4:	0c0004db 	jal	0x136c
    1af8:	00000000 	sll	zero,zero,0x0
    1afc:	94027a06 	lhu	v0,31238(zero)
    1b00:	10530007 	beq	v0,s3,0x1b20
    1b04:	00000000 	sll	zero,zero,0x0
    1b08:	02802021 	addu	a0,s4,zero
    1b0c:	0c000448 	jal	0x1120
    1b10:	00000000 	sll	zero,zero,0x0
    1b14:	94027a06 	lhu	v0,31238(zero)
    1b18:	1453fffb 	bne	v0,s3,0x1b08
    1b1c:	00000000 	sll	zero,zero,0x0
    1b20:	a4007a02 	sh	zero,31234(zero)
    1b24:	26b50001 	addiu	s5,s5,1
    1b28:	16b6ff9f 	bne	s5,s6,0x19a8
    1b2c:	00000000 	sll	zero,zero,0x0
    1b30:	2404000d 	addiu	a0,zero,13
    1b34:	24050700 	addiu	a1,zero,1792
    1b38:	0c00045b 	jal	0x116c
    1b3c:	00000000 	sll	zero,zero,0x0
    1b40:	8fbf0034 	lw	ra,52(sp)
    1b44:	8fb70030 	lw	s7,48(sp)
    1b48:	8fb6002c 	lw	s6,44(sp)
    1b4c:	8fb50028 	lw	s5,40(sp)
    1b50:	8fb40024 	lw	s4,36(sp)
    1b54:	8fb30020 	lw	s3,32(sp)
    1b58:	8fb2001c 	lw	s2,28(sp)
    1b5c:	8fb10018 	lw	s1,24(sp)
    1b60:	8fb00014 	lw	s0,20(sp)
    1b64:	27bd0038 	addiu	sp,sp,56
    1b68:	03e00008 	jr	ra
    1b6c:	00000000 	sll	zero,zero,0x0
    1b70:	27bdff30 	addiu	sp,sp,-208
    1b74:	afbf00cc 	sw	ra,204(sp)
    1b78:	afb400c8 	sw	s4,200(sp)
    1b7c:	afb300c4 	sw	s3,196(sp)
    1b80:	afb200c0 	sw	s2,192(sp)
    1b84:	afb100bc 	sw	s1,188(sp)
    1b88:	afb000b8 	sw	s0,184(sp)
    1b8c:	00808021 	addu	s0,a0,zero
    1b90:	8c840004 	lw	a0,4(a0)
    1b94:	27a50010 	addiu	a1,sp,16
    1b98:	27a60034 	addiu	a2,sp,52
    1b9c:	0c000483 	jal	0x120c
    1ba0:	00000000 	sll	zero,zero,0x0
    1ba4:	8e040008 	lw	a0,8(s0)
    1ba8:	27a50078 	addiu	a1,sp,120
    1bac:	27a6009c 	addiu	a2,sp,156
    1bb0:	0c000483 	jal	0x120c
    1bb4:	00000000 	sll	zero,zero,0x0
    1bb8:	00009821 	addu	s3,zero,zero
    1bbc:	3c120001 	lui	s2,0x1
    1bc0:	365286a0 	ori	s2,s2,0x86a0
    1bc4:	2674009f 	addiu	s4,s3,159
    1bc8:	02802021 	addu	a0,s4,zero
    1bcc:	0c0004db 	jal	0x136c
    1bd0:	00000000 	sll	zero,zero,0x0
    1bd4:	94037a06 	lhu	v1,31238(zero)
    1bd8:	24020001 	addiu	v0,zero,1
    1bdc:	10620051 	beq	v1,v0,0x1d24
    1be0:	00000000 	sll	zero,zero,0x0
    1be4:	24100001 	addiu	s0,zero,1
    1be8:	02402021 	addu	a0,s2,zero
    1bec:	0c000448 	jal	0x1120
    1bf0:	00000000 	sll	zero,zero,0x0
    1bf4:	94027a06 	lhu	v0,31238(zero)
    1bf8:	1450fffb 	bne	v0,s0,0x1be8
    1bfc:	00000000 	sll	zero,zero,0x0
    1c00:	08000749 	j	0x1d24
    1c04:	00000000 	sll	zero,zero,0x0
    1c08:	02002021 	addu	a0,s0,zero
    1c0c:	27a50044 	addiu	a1,sp,68
    1c10:	24060008 	addiu	a2,zero,8
    1c14:	0c00035d 	jal	0xd74
    1c18:	00000000 	sll	zero,zero,0x0
    1c1c:	26040008 	addiu	a0,s0,8
    1c20:	27a50068 	addiu	a1,sp,104
    1c24:	24060003 	addiu	a2,zero,3
    1c28:	0c00035d 	jal	0xd74
    1c2c:	00000000 	sll	zero,zero,0x0
    1c30:	27a40044 	addiu	a0,sp,68
    1c34:	27a50010 	addiu	a1,sp,16
    1c38:	24060008 	addiu	a2,zero,8
    1c3c:	0c0003e0 	jal	0xf80
    1c40:	00000000 	sll	zero,zero,0x0
    1c44:	14510021 	bne	v0,s1,0x1ccc
    1c48:	00000000 	sll	zero,zero,0x0
    1c4c:	27a40068 	addiu	a0,sp,104
    1c50:	27a50034 	addiu	a1,sp,52
    1c54:	24060003 	addiu	a2,zero,3
    1c58:	0c0003e0 	jal	0xf80
    1c5c:	00000000 	sll	zero,zero,0x0
    1c60:	1451001a 	bne	v0,s1,0x1ccc
    1c64:	00000000 	sll	zero,zero,0x0
    1c68:	27a40078 	addiu	a0,sp,120
    1c6c:	27a500ac 	addiu	a1,sp,172
    1c70:	24060008 	addiu	a2,zero,8
    1c74:	0c00039f 	jal	0xe7c
    1c78:	00000000 	sll	zero,zero,0x0
    1c7c:	27a4009c 	addiu	a0,sp,156
    1c80:	27a500b4 	addiu	a1,sp,180
    1c84:	24060003 	addiu	a2,zero,3
    1c88:	0c00039f 	jal	0xe7c
    1c8c:	00000000 	sll	zero,zero,0x0
    1c90:	8fa200ac 	lw	v0,172(sp)
    1c94:	ae020000 	sw	v0,0(s0)
    1c98:	8fa200b0 	lw	v0,176(sp)
    1c9c:	ae020004 	sw	v0,4(s0)
    1ca0:	8fa200b4 	lw	v0,180(sp)
    1ca4:	ae020008 	sw	v0,8(s0)
    1ca8:	02802021 	addu	a0,s4,zero
    1cac:	0c0004d2 	jal	0x1348
    1cb0:	00000000 	sll	zero,zero,0x0
    1cb4:	3c04000f 	lui	a0,0xf
    1cb8:	24844240 	addiu	a0,a0,16960
    1cbc:	0c000448 	jal	0x1120
    1cc0:	00000000 	sll	zero,zero,0x0
    1cc4:	0800074d 	j	0x1d34
    1cc8:	00000000 	sll	zero,zero,0x0
    1ccc:	26100020 	addiu	s0,s0,32
    1cd0:	24027c08 	addiu	v0,zero,31752
    1cd4:	1602ffcc 	bne	s0,v0,0x1c08
    1cd8:	00000000 	sll	zero,zero,0x0
    1cdc:	26730001 	addiu	s3,s3,1
    1ce0:	24020020 	addiu	v0,zero,32
    1ce4:	1662ffb7 	bne	s3,v0,0x1bc4
    1ce8:	00000000 	sll	zero,zero,0x0
    1cec:	24040044 	addiu	a0,zero,68
    1cf0:	24050400 	addiu	a1,zero,1024
    1cf4:	0c000466 	jal	0x1198
    1cf8:	00000000 	sll	zero,zero,0x0
    1cfc:	2404000d 	addiu	a0,zero,13
    1d00:	24050700 	addiu	a1,zero,1792
    1d04:	0c00045b 	jal	0x116c
    1d08:	00000000 	sll	zero,zero,0x0
    1d0c:	24027a00 	addiu	v0,zero,31232
    1d10:	a4400000 	sh	zero,0(v0)
    1d14:	a4400002 	sh	zero,2(v0)
    1d18:	a4400004 	sh	zero,4(v0)
    1d1c:	0800074d 	j	0x1d34
    1d20:	00000000 	sll	zero,zero,0x0
    1d24:	24107a08 	addiu	s0,zero,31240
    1d28:	24110001 	addiu	s1,zero,1
    1d2c:	08000702 	j	0x1c08
    1d30:	00000000 	sll	zero,zero,0x0
    1d34:	8fbf00cc 	lw	ra,204(sp)
    1d38:	8fb400c8 	lw	s4,200(sp)
    1d3c:	8fb300c4 	lw	s3,196(sp)
    1d40:	8fb200c0 	lw	s2,192(sp)
    1d44:	8fb100bc 	lw	s1,188(sp)
    1d48:	8fb000b8 	lw	s0,184(sp)
    1d4c:	27bd00d0 	addiu	sp,sp,208
    1d50:	03e00008 	jr	ra
    1d54:	00000000 	sll	zero,zero,0x0
    1d58:	27bdff68 	addiu	sp,sp,-152
    1d5c:	afbf0094 	sw	ra,148(sp)
    1d60:	afb50090 	sw	s5,144(sp)
    1d64:	afb4008c 	sw	s4,140(sp)
    1d68:	afb30088 	sw	s3,136(sp)
    1d6c:	afb20084 	sw	s2,132(sp)
    1d70:	afb10080 	sw	s1,128(sp)
    1d74:	afb0007c 	sw	s0,124(sp)
    1d78:	afa00074 	sw	zero,116(sp)
    1d7c:	8c840004 	lw	a0,4(a0)
    1d80:	27a50010 	addiu	a1,sp,16
    1d84:	27a60034 	addiu	a2,sp,52
    1d88:	0c000483 	jal	0x120c
    1d8c:	00000000 	sll	zero,zero,0x0
    1d90:	00009821 	addu	s3,zero,zero
    1d94:	3c120001 	lui	s2,0x1
    1d98:	365286a0 	ori	s2,s2,0x86a0
    1d9c:	24100200 	addiu	s0,zero,512
    1da0:	2414004f 	addiu	s4,zero,79
    1da4:	26710001 	addiu	s1,s3,1
    1da8:	02202021 	addu	a0,s1,zero
    1dac:	0c0004db 	jal	0x136c
    1db0:	00000000 	sll	zero,zero,0x0
    1db4:	94027a06 	lhu	v0,31238(zero)
    1db8:	1440006e 	bnez	v0,0x1f74
    1dbc:	00000000 	sll	zero,zero,0x0
    1dc0:	02402021 	addu	a0,s2,zero
    1dc4:	0c000448 	jal	0x1120
    1dc8:	00000000 	sll	zero,zero,0x0
    1dcc:	94037a06 	lhu	v1,31238(zero)
    1dd0:	1060fffb 	beqz	v1,0x1dc0
    1dd4:	00000000 	sll	zero,zero,0x0
    1dd8:	080007dd 	j	0x1f74
    1ddc:	00000000 	sll	zero,zero,0x0
    1de0:	24457a08 	addiu	a1,v0,31240
    1de4:	94437a08 	lhu	v1,31240(v0)
    1de8:	14600018 	bnez	v1,0x1e4c
    1dec:	00000000 	sll	zero,zero,0x0
    1df0:	08000780 	j	0x1e00
    1df4:	00000000 	sll	zero,zero,0x0
    1df8:	24057a08 	addiu	a1,zero,31240
    1dfc:	00001021 	addu	v0,zero,zero
    1e00:	2403ffff 	addiu	v1,zero,-1
    1e04:	a4a30000 	sh	v1,0(a1)
    1e08:	00021042 	srl	v0,v0,0x1
    1e0c:	00139a00 	sll	s3,s3,0x8
    1e10:	00531021 	addu	v0,v0,s3
    1e14:	3050ffff 	andi	s0,v0,0xffff
    1e18:	02202021 	addu	a0,s1,zero
    1e1c:	0c0004d2 	jal	0x1348
    1e20:	00000000 	sll	zero,zero,0x0
    1e24:	3c04000f 	lui	a0,0xf
    1e28:	24844240 	addiu	a0,a0,16960
    1e2c:	0c000448 	jal	0x1120
    1e30:	00000000 	sll	zero,zero,0x0
    1e34:	2415009f 	addiu	s5,zero,159
    1e38:	3c120001 	lui	s2,0x1
    1e3c:	365286a0 	ori	s2,s2,0x86a0
    1e40:	24140001 	addiu	s4,zero,1
    1e44:	0800079f 	j	0x1e7c
    1e48:	00000000 	sll	zero,zero,0x0
    1e4c:	24420002 	addiu	v0,v0,2
    1e50:	1450ffe3 	bne	v0,s0,0x1de0
    1e54:	00000000 	sll	zero,zero,0x0
    1e58:	02209821 	addu	s3,s1,zero
    1e5c:	1634ffd1 	bne	s1,s4,0x1da4
    1e60:	00000000 	sll	zero,zero,0x0
    1e64:	24040044 	addiu	a0,zero,68
    1e68:	24050400 	addiu	a1,zero,1024
    1e6c:	0c000466 	jal	0x1198
    1e70:	00000000 	sll	zero,zero,0x0
    1e74:	080007e7 	j	0x1f9c
    1e78:	00000000 	sll	zero,zero,0x0
    1e7c:	02a02021 	addu	a0,s5,zero
    1e80:	0c0004db 	jal	0x136c
    1e84:	00000000 	sll	zero,zero,0x0
    1e88:	94027a06 	lhu	v0,31238(zero)
    1e8c:	1440003f 	bnez	v0,0x1f8c
    1e90:	00000000 	sll	zero,zero,0x0
    1e94:	02402021 	addu	a0,s2,zero
    1e98:	0c000448 	jal	0x1120
    1e9c:	00000000 	sll	zero,zero,0x0
    1ea0:	94027a06 	lhu	v0,31238(zero)
    1ea4:	1040fffb 	beqz	v0,0x1e94
    1ea8:	00000000 	sll	zero,zero,0x0
    1eac:	080007e3 	j	0x1f8c
    1eb0:	00000000 	sll	zero,zero,0x0
    1eb4:	02202021 	addu	a0,s1,zero
    1eb8:	27a50044 	addiu	a1,sp,68
    1ebc:	24060008 	addiu	a2,zero,8
    1ec0:	0c00035d 	jal	0xd74
    1ec4:	00000000 	sll	zero,zero,0x0
    1ec8:	27a40044 	addiu	a0,sp,68
    1ecc:	27a50074 	addiu	a1,sp,116
    1ed0:	24060008 	addiu	a2,zero,8
    1ed4:	0c0003e0 	jal	0xf80
    1ed8:	00000000 	sll	zero,zero,0x0
    1edc:	1454001c 	bne	v0,s4,0x1f50
    1ee0:	00000000 	sll	zero,zero,0x0
    1ee4:	27a40010 	addiu	a0,sp,16
    1ee8:	27a50068 	addiu	a1,sp,104
    1eec:	24060008 	addiu	a2,zero,8
    1ef0:	0c00039f 	jal	0xe7c
    1ef4:	00000000 	sll	zero,zero,0x0
    1ef8:	27a40034 	addiu	a0,sp,52
    1efc:	27a50070 	addiu	a1,sp,112
    1f00:	24060003 	addiu	a2,zero,3
    1f04:	0c00039f 	jal	0xe7c
    1f08:	00000000 	sll	zero,zero,0x0
    1f0c:	8fa20068 	lw	v0,104(sp)
    1f10:	ae220000 	sw	v0,0(s1)
    1f14:	8fa2006c 	lw	v0,108(sp)
    1f18:	ae220004 	sw	v0,4(s1)
    1f1c:	8fa20070 	lw	v0,112(sp)
    1f20:	ae220008 	sw	v0,8(s1)
    1f24:	ae20001c 	sw	zero,28(s1)
    1f28:	a630001a 	sh	s0,26(s1)
    1f2c:	02a02021 	addu	a0,s5,zero
    1f30:	0c0004d2 	jal	0x1348
    1f34:	00000000 	sll	zero,zero,0x0
    1f38:	3c04000f 	lui	a0,0xf
    1f3c:	24844240 	addiu	a0,a0,16960
    1f40:	0c000448 	jal	0x1120
    1f44:	00000000 	sll	zero,zero,0x0
    1f48:	080007e7 	j	0x1f9c
    1f4c:	00000000 	sll	zero,zero,0x0
    1f50:	26310020 	addiu	s1,s1,32
    1f54:	1633ffd7 	bne	s1,s3,0x1eb4
    1f58:	00000000 	sll	zero,zero,0x0
    1f5c:	26b50001 	addiu	s5,s5,1
    1f60:	240200bf 	addiu	v0,zero,191
    1f64:	16a2ffc5 	bne	s5,v0,0x1e7c
    1f68:	00000000 	sll	zero,zero,0x0
    1f6c:	080007e7 	j	0x1f9c
    1f70:	00000000 	sll	zero,zero,0x0
    1f74:	94027a08 	lhu	v0,31240(zero)
    1f78:	1040ff9f 	beqz	v0,0x1df8
    1f7c:	00000000 	sll	zero,zero,0x0
    1f80:	24020002 	addiu	v0,zero,2
    1f84:	08000778 	j	0x1de0
    1f88:	00000000 	sll	zero,zero,0x0
    1f8c:	24117a08 	addiu	s1,zero,31240
    1f90:	24137c08 	addiu	s3,zero,31752
    1f94:	080007ad 	j	0x1eb4
    1f98:	00000000 	sll	zero,zero,0x0
    1f9c:	8fbf0094 	lw	ra,148(sp)
    1fa0:	8fb50090 	lw	s5,144(sp)
    1fa4:	8fb4008c 	lw	s4,140(sp)
    1fa8:	8fb30088 	lw	s3,136(sp)
    1fac:	8fb20084 	lw	s2,132(sp)
    1fb0:	8fb10080 	lw	s1,128(sp)
    1fb4:	8fb0007c 	lw	s0,124(sp)
    1fb8:	27bd0098 	addiu	sp,sp,152
    1fbc:	03e00008 	jr	ra
    1fc0:	00000000 	sll	zero,zero,0x0
    1fc4:	27bdff70 	addiu	sp,sp,-144
    1fc8:	afbf008c 	sw	ra,140(sp)
    1fcc:	afb40088 	sw	s4,136(sp)
    1fd0:	afb30084 	sw	s3,132(sp)
    1fd4:	afb20080 	sw	s2,128(sp)
    1fd8:	afb1007c 	sw	s1,124(sp)
    1fdc:	afb00078 	sw	s0,120(sp)
    1fe0:	8c840004 	lw	a0,4(a0)
    1fe4:	27a50010 	addiu	a1,sp,16
    1fe8:	27a60034 	addiu	a2,sp,52
    1fec:	0c000483 	jal	0x120c
    1ff0:	00000000 	sll	zero,zero,0x0
    1ff4:	00009821 	addu	s3,zero,zero
    1ff8:	3c120001 	lui	s2,0x1
    1ffc:	365286a0 	ori	s2,s2,0x86a0
    2000:	2674009f 	addiu	s4,s3,159
    2004:	02802021 	addu	a0,s4,zero
    2008:	0c0004db 	jal	0x136c
    200c:	00000000 	sll	zero,zero,0x0
    2010:	94037a06 	lhu	v1,31238(zero)
    2014:	24020001 	addiu	v0,zero,1
    2018:	1062007e 	beq	v1,v0,0x2214
    201c:	00000000 	sll	zero,zero,0x0
    2020:	24100001 	addiu	s0,zero,1
    2024:	02402021 	addu	a0,s2,zero
    2028:	0c000448 	jal	0x1120
    202c:	00000000 	sll	zero,zero,0x0
    2030:	94027a06 	lhu	v0,31238(zero)
    2034:	1450fffb 	bne	v0,s0,0x2024
    2038:	00000000 	sll	zero,zero,0x0
    203c:	08000885 	j	0x2214
    2040:	00000000 	sll	zero,zero,0x0
    2044:	02002021 	addu	a0,s0,zero
    2048:	27a50044 	addiu	a1,sp,68
    204c:	24060008 	addiu	a2,zero,8
    2050:	0c00035d 	jal	0xd74
    2054:	00000000 	sll	zero,zero,0x0
    2058:	26040008 	addiu	a0,s0,8
    205c:	27a50068 	addiu	a1,sp,104
    2060:	24060004 	addiu	a2,zero,4
    2064:	0c00035d 	jal	0xd74
    2068:	00000000 	sll	zero,zero,0x0
    206c:	27a40044 	addiu	a0,sp,68
    2070:	27a50010 	addiu	a1,sp,16
    2074:	24060008 	addiu	a2,zero,8
    2078:	0c0003e0 	jal	0xf80
    207c:	00000000 	sll	zero,zero,0x0
    2080:	1451001d 	bne	v0,s1,0x20f8
    2084:	00000000 	sll	zero,zero,0x0
    2088:	27a40068 	addiu	a0,sp,104
    208c:	27a50034 	addiu	a1,sp,52
    2090:	24060003 	addiu	a2,zero,3
    2094:	0c0003e0 	jal	0xf80
    2098:	00000000 	sll	zero,zero,0x0
    209c:	14510016 	bne	v0,s1,0x20f8
    20a0:	00000000 	sll	zero,zero,0x0
    20a4:	ae000000 	sw	zero,0(s0)
    20a8:	ae000004 	sw	zero,4(s0)
    20ac:	ae000008 	sw	zero,8(s0)
    20b0:	ae00001c 	sw	zero,28(s0)
    20b4:	9602001a 	lhu	v0,26(s0)
    20b8:	244200bd 	addiu	v0,v0,189
    20bc:	3050ffff 	andi	s0,v0,0xffff
    20c0:	02802021 	addu	a0,s4,zero
    20c4:	0c0004d2 	jal	0x1348
    20c8:	00000000 	sll	zero,zero,0x0
    20cc:	3c04000f 	lui	a0,0xf
    20d0:	24844240 	addiu	a0,a0,16960
    20d4:	0c000448 	jal	0x1120
    20d8:	00000000 	sll	zero,zero,0x0
    20dc:	3c120001 	lui	s2,0x1
    20e0:	365286a0 	ori	s2,s2,0x86a0
    20e4:	3c13000f 	lui	s3,0xf
    20e8:	26734240 	addiu	s3,s3,16960
    20ec:	3414ffff 	ori	s4,zero,0xffff
    20f0:	08000854 	j	0x2150
    20f4:	00000000 	sll	zero,zero,0x0
    20f8:	26100020 	addiu	s0,s0,32
    20fc:	24027c08 	addiu	v0,zero,31752
    2100:	1602ffd0 	bne	s0,v0,0x2044
    2104:	00000000 	sll	zero,zero,0x0
    2108:	26730001 	addiu	s3,s3,1
    210c:	24020020 	addiu	v0,zero,32
    2110:	1662ffbb 	bne	s3,v0,0x2000
    2114:	00000000 	sll	zero,zero,0x0
    2118:	24040044 	addiu	a0,zero,68
    211c:	24050400 	addiu	a1,zero,1024
    2120:	0c000466 	jal	0x1198
    2124:	00000000 	sll	zero,zero,0x0
    2128:	2404000d 	addiu	a0,zero,13
    212c:	24050700 	addiu	a1,zero,1792
    2130:	0c00045b 	jal	0x116c
    2134:	00000000 	sll	zero,zero,0x0
    2138:	24027a00 	addiu	v0,zero,31232
    213c:	a4400000 	sh	zero,0(v0)
    2140:	a4400002 	sh	zero,2(v0)
    2144:	a4400004 	sh	zero,4(v0)
    2148:	0800089d 	j	0x2274
    214c:	00000000 	sll	zero,zero,0x0
    2150:	02008821 	addu	s1,s0,zero
    2154:	2e020100 	sltiu	v0,s0,256
    2158:	1440003e 	bnez	v0,0x2254
    215c:	00000000 	sll	zero,zero,0x0
    2160:	02001021 	addu	v0,s0,zero
    2164:	2442ff00 	addiu	v0,v0,-256
    2168:	2c430100 	sltiu	v1,v0,256
    216c:	1060fffd 	beqz	v1,0x2164
    2170:	00000000 	sll	zero,zero,0x0
    2174:	08000889 	j	0x2224
    2178:	00000000 	sll	zero,zero,0x0
    217c:	02402021 	addu	a0,s2,zero
    2180:	0c000448 	jal	0x1120
    2184:	00000000 	sll	zero,zero,0x0
    2188:	94027a06 	lhu	v0,31238(zero)
    218c:	1040fffb 	beqz	v0,0x217c
    2190:	00000000 	sll	zero,zero,0x0
    2194:	2e220100 	sltiu	v0,s1,256
    2198:	14400007 	bnez	v0,0x21b8
    219c:	00000000 	sll	zero,zero,0x0
    21a0:	02201021 	addu	v0,s1,zero
    21a4:	2442ff00 	addiu	v0,v0,-256
    21a8:	2c430100 	sltiu	v1,v0,256
    21ac:	1060fffd 	beqz	v1,0x21a4
    21b0:	00000000 	sll	zero,zero,0x0
    21b4:	323100ff 	andi	s1,s1,0xff
    21b8:	32220001 	andi	v0,s1,0x1
    21bc:	14400006 	bnez	v0,0x21d8
    21c0:	00000000 	sll	zero,zero,0x0
    21c4:	00118840 	sll	s1,s1,0x1
    21c8:	96307a08 	lhu	s0,31240(s1)
    21cc:	a6207a08 	sh	zero,31240(s1)
    21d0:	0800087b 	j	0x21ec
    21d4:	00000000 	sll	zero,zero,0x0
    21d8:	00118842 	srl	s1,s1,0x1
    21dc:	8e227a08 	lw	v0,31240(s1)
    21e0:	00028402 	srl	s0,v0,0x10
    21e4:	3042ffff 	andi	v0,v0,0xffff
    21e8:	ae227a08 	sw	v0,31240(s1)
    21ec:	94047a00 	lhu	a0,31232(zero)
    21f0:	0c0004d2 	jal	0x1348
    21f4:	00000000 	sll	zero,zero,0x0
    21f8:	02602021 	addu	a0,s3,zero
    21fc:	0c000448 	jal	0x1120
    2200:	00000000 	sll	zero,zero,0x0
    2204:	1614ffd2 	bne	s0,s4,0x2150
    2208:	00000000 	sll	zero,zero,0x0
    220c:	0800089d 	j	0x2274
    2210:	00000000 	sll	zero,zero,0x0
    2214:	24107a08 	addiu	s0,zero,31240
    2218:	24110001 	addiu	s1,zero,1
    221c:	08000811 	j	0x2044
    2220:	00000000 	sll	zero,zero,0x0
    2224:	2624ff00 	addiu	a0,s1,-256
    2228:	00042202 	srl	a0,a0,0x8
    222c:	24840001 	addiu	a0,a0,1
    2230:	3084ffff 	andi	a0,a0,0xffff
    2234:	24840001 	addiu	a0,a0,1
    2238:	0c0004db 	jal	0x136c
    223c:	00000000 	sll	zero,zero,0x0
    2240:	94027a06 	lhu	v0,31238(zero)
    2244:	1040ffcd 	beqz	v0,0x217c
    2248:	00000000 	sll	zero,zero,0x0
    224c:	08000868 	j	0x21a0
    2250:	00000000 	sll	zero,zero,0x0
    2254:	24040001 	addiu	a0,zero,1
    2258:	0c0004db 	jal	0x136c
    225c:	00000000 	sll	zero,zero,0x0
    2260:	94027a06 	lhu	v0,31238(zero)
    2264:	1040ffc5 	beqz	v0,0x217c
    2268:	00000000 	sll	zero,zero,0x0
    226c:	0800086e 	j	0x21b8
    2270:	00000000 	sll	zero,zero,0x0
    2274:	8fbf008c 	lw	ra,140(sp)
    2278:	8fb40088 	lw	s4,136(sp)
    227c:	8fb30084 	lw	s3,132(sp)
    2280:	8fb20080 	lw	s2,128(sp)
    2284:	8fb1007c 	lw	s1,124(sp)
    2288:	8fb00078 	lw	s0,120(sp)
    228c:	27bd0090 	addiu	sp,sp,144
    2290:	03e00008 	jr	ra
    2294:	00000000 	sll	zero,zero,0x0
    2298:	27bdffe8 	addiu	sp,sp,-24
    229c:	afbf0014 	sw	ra,20(sp)
    22a0:	8c840004 	lw	a0,4(a0)
    22a4:	00002821 	addu	a1,zero,zero
    22a8:	00003021 	addu	a2,zero,zero
    22ac:	0c000595 	jal	0x1654
    22b0:	00000000 	sll	zero,zero,0x0
    22b4:	0c001e82 	jal	0x7a08
    22b8:	00000000 	sll	zero,zero,0x0
    22bc:	8fbf0014 	lw	ra,20(sp)
    22c0:	27bd0018 	addiu	sp,sp,24
    22c4:	03e00008 	jr	ra
    22c8:	00000000 	sll	zero,zero,0x0
    22cc:	27bdff88 	addiu	sp,sp,-120
    22d0:	afbf0074 	sw	ra,116(sp)
    22d4:	24020780 	addiu	v0,zero,1920
    22d8:	afa20010 	sw	v0,16(sp)
    22dc:	24020773 	addiu	v0,zero,1907
    22e0:	afa20014 	sw	v0,20(sp)
    22e4:	24020769 	addiu	v0,zero,1897
    22e8:	afa20018 	sw	v0,24(sp)
    22ec:	24020772 	addiu	v0,zero,1906
    22f0:	afa2001c 	sw	v0,28(sp)
    22f4:	2402072c 	addiu	v0,zero,1836
    22f8:	afa20020 	sw	v0,32(sp)
    22fc:	24020747 	addiu	v0,zero,1863
    2300:	afa20024 	sw	v0,36(sp)
    2304:	2402076f 	addiu	v0,zero,1903
    2308:	afa20028 	sw	v0,40(sp)
    230c:	afa2002c 	sw	v0,44(sp)
    2310:	24020764 	addiu	v0,zero,1892
    2314:	afa20030 	sw	v0,48(sp)
    2318:	24020720 	addiu	v0,zero,1824
    231c:	afa20034 	sw	v0,52(sp)
    2320:	24020742 	addiu	v0,zero,1858
    2324:	afa20038 	sw	v0,56(sp)
    2328:	24020779 	addiu	v0,zero,1913
    232c:	afa2003c 	sw	v0,60(sp)
    2330:	24020765 	addiu	v0,zero,1893
    2334:	afa20040 	sw	v0,64(sp)
    2338:	afa00044 	sw	zero,68(sp)
    233c:	27a40010 	addiu	a0,sp,16
    2340:	24050700 	addiu	a1,zero,1792
    2344:	0c000466 	jal	0x1198
    2348:	00000000 	sll	zero,zero,0x0
    234c:	2404000d 	addiu	a0,zero,13
    2350:	24050700 	addiu	a1,zero,1792
    2354:	0c00045b 	jal	0x116c
    2358:	00000000 	sll	zero,zero,0x0
    235c:	8fbf0074 	lw	ra,116(sp)
    2360:	27bd0078 	addiu	sp,sp,120
    2364:	03e00008 	jr	ra
    2368:	00000000 	sll	zero,zero,0x0
    236c:	27bdff88 	addiu	sp,sp,-120
    2370:	afbf0074 	sw	ra,116(sp)
    2374:	24020780 	addiu	v0,zero,1920
    2378:	afa20010 	sw	v0,16(sp)
    237c:	24020773 	addiu	v0,zero,1907
    2380:	afa20014 	sw	v0,20(sp)
    2384:	24020769 	addiu	v0,zero,1897
    2388:	afa20018 	sw	v0,24(sp)
    238c:	24020772 	addiu	v0,zero,1906
    2390:	afa2001c 	sw	v0,28(sp)
    2394:	2402072c 	addiu	v0,zero,1836
    2398:	afa20020 	sw	v0,32(sp)
    239c:	240207ab 	addiu	v0,zero,1963
    23a0:	afa20024 	sw	v0,36(sp)
    23a4:	240207d0 	addiu	v0,zero,2000
    23a8:	afa20028 	sw	v0,40(sp)
    23ac:	24020720 	addiu	v0,zero,1824
    23b0:	afa2002c 	sw	v0,44(sp)
    23b4:	2402070d 	addiu	v0,zero,1805
    23b8:	afa20030 	sw	v0,48(sp)
    23bc:	24020784 	addiu	v0,zero,1924
    23c0:	afa20034 	sw	v0,52(sp)
    23c4:	24020785 	addiu	v0,zero,1925
    23c8:	afa20038 	sw	v0,56(sp)
    23cc:	24020786 	addiu	v0,zero,1926
    23d0:	afa2003c 	sw	v0,60(sp)
    23d4:	24020020 	addiu	v0,zero,32
    23d8:	afa20040 	sw	v0,64(sp)
    23dc:	24030787 	addiu	v1,zero,1927
    23e0:	afa30044 	sw	v1,68(sp)
    23e4:	24030788 	addiu	v1,zero,1928
    23e8:	afa30048 	sw	v1,72(sp)
    23ec:	afa2004c 	sw	v0,76(sp)
    23f0:	24040789 	addiu	a0,zero,1929
    23f4:	afa40050 	sw	a0,80(sp)
    23f8:	afa30054 	sw	v1,84(sp)
    23fc:	2403078a 	addiu	v1,zero,1930
    2400:	afa30058 	sw	v1,88(sp)
    2404:	afa2005c 	sw	v0,92(sp)
    2408:	2402078b 	addiu	v0,zero,1931
    240c:	afa20060 	sw	v0,96(sp)
    2410:	240207f2 	addiu	v0,zero,2034
    2414:	afa20064 	sw	v0,100(sp)
    2418:	afa00068 	sw	zero,104(sp)
    241c:	27a40010 	addiu	a0,sp,16
    2420:	24050700 	addiu	a1,zero,1792
    2424:	0c000466 	jal	0x1198
    2428:	00000000 	sll	zero,zero,0x0
    242c:	2404000d 	addiu	a0,zero,13
    2430:	24050700 	addiu	a1,zero,1792
    2434:	0c00045b 	jal	0x116c
    2438:	00000000 	sll	zero,zero,0x0
    243c:	8fbf0074 	lw	ra,116(sp)
    2440:	27bd0078 	addiu	sp,sp,120
    2444:	03e00008 	jr	ra
    2448:	00000000 	sll	zero,zero,0x0
    244c:	27bdfbe0 	addiu	sp,sp,-1056
    2450:	3c020000 	lui	v0,0x0
    2454:	24426040 	addiu	v0,v0,24640
    2458:	03a01821 	addu	v1,sp,zero
    245c:	24450210 	addiu	a1,v0,528
    2460:	8c490000 	lw	t1,0(v0)
    2464:	8c480004 	lw	t0,4(v0)
    2468:	8c470008 	lw	a3,8(v0)
    246c:	8c46000c 	lw	a2,12(v0)
    2470:	ac690000 	sw	t1,0(v1)
    2474:	ac680004 	sw	t0,4(v1)
    2478:	ac670008 	sw	a3,8(v1)
    247c:	ac66000c 	sw	a2,12(v1)
    2480:	24420010 	addiu	v0,v0,16
    2484:	24630010 	addiu	v1,v1,16
    2488:	1445fff5 	bne	v0,a1,0x2460
    248c:	00000000 	sll	zero,zero,0x0
    2490:	3c020000 	lui	v0,0x0
    2494:	24426250 	addiu	v0,v0,25168
    2498:	27a30210 	addiu	v1,sp,528
    249c:	24450210 	addiu	a1,v0,528
    24a0:	8c490000 	lw	t1,0(v0)
    24a4:	8c480004 	lw	t0,4(v0)
    24a8:	8c470008 	lw	a3,8(v0)
    24ac:	8c46000c 	lw	a2,12(v0)
    24b0:	ac690000 	sw	t1,0(v1)
    24b4:	ac680004 	sw	t0,4(v1)
    24b8:	ac670008 	sw	a3,8(v1)
    24bc:	ac66000c 	sw	a2,12(v1)
    24c0:	24420010 	addiu	v0,v0,16
    24c4:	24630010 	addiu	v1,v1,16
    24c8:	1445fff5 	bne	v0,a1,0x24a0
    24cc:	00000000 	sll	zero,zero,0x0
    24d0:	2482feff 	addiu	v0,a0,-257
    24d4:	2c420083 	sltiu	v0,v0,131
    24d8:	10400011 	beqz	v0,0x2520
    24dc:	00000000 	sll	zero,zero,0x0
    24e0:	24020001 	addiu	v0,zero,1
    24e4:	8c030140 	lw	v1,320(zero)
    24e8:	14620007 	bne	v1,v0,0x2508
    24ec:	00000000 	sll	zero,zero,0x0
    24f0:	2484ff00 	addiu	a0,a0,-256
    24f4:	00042080 	sll	a0,a0,0x2
    24f8:	03a42021 	addu	a0,sp,a0
    24fc:	8c820000 	lw	v0,0(a0)
    2500:	08000949 	j	0x2524
    2504:	00000000 	sll	zero,zero,0x0
    2508:	2484ff00 	addiu	a0,a0,-256
    250c:	00042080 	sll	a0,a0,0x2
    2510:	03a42021 	addu	a0,sp,a0
    2514:	8c820210 	lw	v0,528(a0)
    2518:	08000949 	j	0x2524
    251c:	00000000 	sll	zero,zero,0x0
    2520:	00001021 	addu	v0,zero,zero
    2524:	27bd0420 	addiu	sp,sp,1056
    2528:	03e00008 	jr	ra
    252c:	00000000 	sll	zero,zero,0x0
    2530:	27bdffa0 	addiu	sp,sp,-96
    2534:	afbf005c 	sw	ra,92(sp)
    2538:	afb70058 	sw	s7,88(sp)
    253c:	afb60054 	sw	s6,84(sp)
    2540:	afb50050 	sw	s5,80(sp)
    2544:	afb4004c 	sw	s4,76(sp)
    2548:	afb30048 	sw	s3,72(sp)
    254c:	afb20044 	sw	s2,68(sp)
    2550:	afb10040 	sw	s1,64(sp)
    2554:	afb0003c 	sw	s0,60(sp)
    2558:	0080b021 	addu	s6,a0,zero
    255c:	3c020000 	lui	v0,0x0
    2560:	24426460 	addiu	v0,v0,25696
    2564:	27a30010 	addiu	v1,sp,16
    2568:	24440020 	addiu	a0,v0,32
    256c:	8c480000 	lw	t0,0(v0)
    2570:	8c470004 	lw	a3,4(v0)
    2574:	8c460008 	lw	a2,8(v0)
    2578:	8c45000c 	lw	a1,12(v0)
    257c:	ac680000 	sw	t0,0(v1)
    2580:	ac670004 	sw	a3,4(v1)
    2584:	ac660008 	sw	a2,8(v1)
    2588:	ac65000c 	sw	a1,12(v1)
    258c:	24420010 	addiu	v0,v0,16
    2590:	24630010 	addiu	v1,v1,16
    2594:	1444fff5 	bne	v0,a0,0x256c
    2598:	00000000 	sll	zero,zero,0x0
    259c:	8c440000 	lw	a0,0(v0)
    25a0:	8c420004 	lw	v0,4(v0)
    25a4:	ac640000 	sw	a0,0(v1)
    25a8:	ac620004 	sw	v0,4(v1)
    25ac:	00009021 	addu	s2,zero,zero
    25b0:	241101e0 	addiu	s1,zero,480
    25b4:	241300f0 	addiu	s3,zero,240
    25b8:	24150019 	addiu	s5,zero,25
    25bc:	24140008 	addiu	s4,zero,8
    25c0:	2417000d 	addiu	s7,zero,13
    25c4:	0c000452 	jal	0x1148
    25c8:	00000000 	sll	zero,zero,0x0
    25cc:	1051fffd 	beq	v0,s1,0x25c4
    25d0:	00000000 	sll	zero,zero,0x0
    25d4:	00402021 	addu	a0,v0,zero
    25d8:	0c000913 	jal	0x244c
    25dc:	00000000 	sll	zero,zero,0x0
    25e0:	00408021 	addu	s0,v0,zero
    25e4:	30420100 	andi	v0,v0,0x100
    25e8:	1440fff6 	bnez	v0,0x25c4
    25ec:	00000000 	sll	zero,zero,0x0
    25f0:	12130036 	beq	s0,s3,0x26cc
    25f4:	00000000 	sll	zero,zero,0x0
    25f8:	1214001c 	beq	s0,s4,0x266c
    25fc:	00000000 	sll	zero,zero,0x0
    2600:	2e020009 	sltiu	v0,s0,9
    2604:	10400005 	beqz	v0,0x261c
    2608:	00000000 	sll	zero,zero,0x0
    260c:	1200002f 	beqz	s0,0x26cc
    2610:	00000000 	sll	zero,zero,0x0
    2614:	080009a7 	j	0x269c
    2618:	00000000 	sll	zero,zero,0x0
    261c:	1217000a 	beq	s0,s7,0x2648
    2620:	00000000 	sll	zero,zero,0x0
    2624:	24020014 	addiu	v0,zero,20
    2628:	1602001c 	bne	s0,v0,0x269c
    262c:	00000000 	sll	zero,zero,0x0
    2630:	24030140 	addiu	v1,zero,320
    2634:	8c620000 	lw	v0,0(v1)
    2638:	2c420001 	sltiu	v0,v0,1
    263c:	ac620000 	sw	v0,0(v1)
    2640:	080009b3 	j	0x26cc
    2644:	00000000 	sll	zero,zero,0x0
    2648:	00129080 	sll	s2,s2,0x2
    264c:	02d2b021 	addu	s6,s6,s2
    2650:	aec00000 	sw	zero,0(s6)
    2654:	2404000d 	addiu	a0,zero,13
    2658:	24050400 	addiu	a1,zero,1024
    265c:	0c00045b 	jal	0x116c
    2660:	00000000 	sll	zero,zero,0x0
    2664:	080009c2 	j	0x2708
    2668:	00000000 	sll	zero,zero,0x0
    266c:	1240ffd5 	beqz	s2,0x25c4
    2670:	00000000 	sll	zero,zero,0x0
    2674:	2652ffff 	addiu	s2,s2,-1
    2678:	00121080 	sll	v0,s2,0x2
    267c:	02c21021 	addu	v0,s6,v0
    2680:	ac400000 	sw	zero,0(v0)
    2684:	02802021 	addu	a0,s4,zero
    2688:	00002821 	addu	a1,zero,zero
    268c:	0c00045b 	jal	0x116c
    2690:	00000000 	sll	zero,zero,0x0
    2694:	080009b3 	j	0x26cc
    2698:	00000000 	sll	zero,zero,0x0
    269c:	02002021 	addu	a0,s0,zero
    26a0:	24050700 	addiu	a1,zero,1792
    26a4:	0c00045b 	jal	0x116c
    26a8:	00000000 	sll	zero,zero,0x0
    26ac:	2602ffec 	addiu	v0,s0,-20
    26b0:	2c4200eb 	sltiu	v0,v0,235
    26b4:	10400005 	beqz	v0,0x26cc
    26b8:	00000000 	sll	zero,zero,0x0
    26bc:	00121080 	sll	v0,s2,0x2
    26c0:	02c21021 	addu	v0,s6,v0
    26c4:	ac500000 	sw	s0,0(v0)
    26c8:	26520001 	addiu	s2,s2,1
    26cc:	1655ffbd 	bne	s2,s5,0x25c4
    26d0:	00000000 	sll	zero,zero,0x0
    26d4:	aec00000 	sw	zero,0(s6)
    26d8:	2404000d 	addiu	a0,zero,13
    26dc:	24050700 	addiu	a1,zero,1792
    26e0:	0c00045b 	jal	0x116c
    26e4:	00000000 	sll	zero,zero,0x0
    26e8:	27a40010 	addiu	a0,sp,16
    26ec:	24050400 	addiu	a1,zero,1024
    26f0:	0c000466 	jal	0x1198
    26f4:	00000000 	sll	zero,zero,0x0
    26f8:	2404000d 	addiu	a0,zero,13
    26fc:	24050700 	addiu	a1,zero,1792
    2700:	0c00045b 	jal	0x116c
    2704:	00000000 	sll	zero,zero,0x0
    2708:	8fbf005c 	lw	ra,92(sp)
    270c:	8fb70058 	lw	s7,88(sp)
    2710:	8fb60054 	lw	s6,84(sp)
    2714:	8fb50050 	lw	s5,80(sp)
    2718:	8fb4004c 	lw	s4,76(sp)
    271c:	8fb30048 	lw	s3,72(sp)
    2720:	8fb20044 	lw	s2,68(sp)
    2724:	8fb10040 	lw	s1,64(sp)
    2728:	8fb0003c 	lw	s0,60(sp)
    272c:	27bd0060 	addiu	sp,sp,96
    2730:	03e00008 	jr	ra
    2734:	00000000 	sll	zero,zero,0x0
    2738:	aca00000 	sw	zero,0(a1)
    273c:	00001021 	addu	v0,zero,zero
    2740:	00001821 	addu	v1,zero,zero
    2744:	240affdf 	addiu	t2,zero,-33
    2748:	24090020 	addiu	t1,zero,32
    274c:	24070003 	addiu	a3,zero,3
    2750:	1460000d 	bnez	v1,0x2788
    2754:	00000000 	sll	zero,zero,0x0
    2758:	8c880000 	lw	t0,0(a0)
    275c:	11090010 	beq	t0,t1,0x27a0
    2760:	00000000 	sll	zero,zero,0x0
    2764:	00021080 	sll	v0,v0,0x2
    2768:	00c21021 	addu	v0,a2,v0
    276c:	ac440000 	sw	a0,0(v0)
    2770:	8ca20000 	lw	v0,0(a1)
    2774:	24420001 	addiu	v0,v0,1
    2778:	aca20000 	sw	v0,0(a1)
    277c:	24030001 	addiu	v1,zero,1
    2780:	080009e8 	j	0x27a0
    2784:	00000000 	sll	zero,zero,0x0
    2788:	8c820000 	lw	v0,0(a0)
    278c:	004a1024 	and	v0,v0,t2
    2790:	14400003 	bnez	v0,0x27a0
    2794:	00000000 	sll	zero,zero,0x0
    2798:	ac800000 	sw	zero,0(a0)
    279c:	00001821 	addu	v1,zero,zero
    27a0:	8ca20000 	lw	v0,0(a1)
    27a4:	24840004 	addiu	a0,a0,4
    27a8:	1447ffe9 	bne	v0,a3,0x2750
    27ac:	00000000 	sll	zero,zero,0x0
    27b0:	03e00008 	jr	ra
    27b4:	00000000 	sll	zero,zero,0x0
    27b8:	27bdffb8 	addiu	sp,sp,-72
    27bc:	afbf0044 	sw	ra,68(sp)
    27c0:	afb10040 	sw	s1,64(sp)
    27c4:	afb0003c 	sw	s0,60(sp)
    27c8:	00a08821 	addu	s1,a1,zero
    27cc:	24020063 	addiu	v0,zero,99
    27d0:	afa20010 	sw	v0,16(sp)
    27d4:	2402006c 	addiu	v0,zero,108
    27d8:	afa20014 	sw	v0,20(sp)
    27dc:	24030072 	addiu	v1,zero,114
    27e0:	afa30018 	sw	v1,24(sp)
    27e4:	afa0001c 	sw	zero,28(sp)
    27e8:	afa20020 	sw	v0,32(sp)
    27ec:	2402006f 	addiu	v0,zero,111
    27f0:	afa20024 	sw	v0,36(sp)
    27f4:	24020075 	addiu	v0,zero,117
    27f8:	afa20028 	sw	v0,40(sp)
    27fc:	24020067 	addiu	v0,zero,103
    2800:	afa2002c 	sw	v0,44(sp)
    2804:	24020062 	addiu	v0,zero,98
    2808:	afa20030 	sw	v0,48(sp)
    280c:	afa00034 	sw	zero,52(sp)
    2810:	8cb00000 	lw	s0,0(a1)
    2814:	02002021 	addu	a0,s0,zero
    2818:	24050060 	addiu	a1,zero,96
    281c:	24060004 	addiu	a2,zero,4
    2820:	0c0003e0 	jal	0xf80
    2824:	00000000 	sll	zero,zero,0x0
    2828:	24030001 	addiu	v1,zero,1
    282c:	14430005 	bne	v0,v1,0x2844
    2830:	00000000 	sll	zero,zero,0x0
    2834:	0c0005fe 	jal	0x17f8
    2838:	00000000 	sll	zero,zero,0x0
    283c:	08000a7e 	j	0x29f8
    2840:	00000000 	sll	zero,zero,0x0
    2844:	02002021 	addu	a0,s0,zero
    2848:	24050070 	addiu	a1,zero,112
    284c:	24060005 	addiu	a2,zero,5
    2850:	0c0003e0 	jal	0xf80
    2854:	00000000 	sll	zero,zero,0x0
    2858:	24030001 	addiu	v1,zero,1
    285c:	14430006 	bne	v0,v1,0x2878
    2860:	00000000 	sll	zero,zero,0x0
    2864:	02202021 	addu	a0,s1,zero
    2868:	0c000650 	jal	0x1940
    286c:	00000000 	sll	zero,zero,0x0
    2870:	08000a7e 	j	0x29f8
    2874:	00000000 	sll	zero,zero,0x0
    2878:	02002021 	addu	a0,s0,zero
    287c:	24050084 	addiu	a1,zero,132
    2880:	24060004 	addiu	a2,zero,4
    2884:	0c0003e0 	jal	0xf80
    2888:	00000000 	sll	zero,zero,0x0
    288c:	24030001 	addiu	v1,zero,1
    2890:	14430006 	bne	v0,v1,0x28ac
    2894:	00000000 	sll	zero,zero,0x0
    2898:	02202021 	addu	a0,s1,zero
    289c:	0c0006dc 	jal	0x1b70
    28a0:	00000000 	sll	zero,zero,0x0
    28a4:	08000a7e 	j	0x29f8
    28a8:	00000000 	sll	zero,zero,0x0
    28ac:	02002021 	addu	a0,s0,zero
    28b0:	240500a8 	addiu	a1,zero,168
    28b4:	24060004 	addiu	a2,zero,4
    28b8:	0c0003e0 	jal	0xf80
    28bc:	00000000 	sll	zero,zero,0x0
    28c0:	24030001 	addiu	v1,zero,1
    28c4:	14430006 	bne	v0,v1,0x28e0
    28c8:	00000000 	sll	zero,zero,0x0
    28cc:	02202021 	addu	a0,s1,zero
    28d0:	0c0007f1 	jal	0x1fc4
    28d4:	00000000 	sll	zero,zero,0x0
    28d8:	08000a7e 	j	0x29f8
    28dc:	00000000 	sll	zero,zero,0x0
    28e0:	02002021 	addu	a0,s0,zero
    28e4:	240500b8 	addiu	a1,zero,184
    28e8:	24060006 	addiu	a2,zero,6
    28ec:	0c0003e0 	jal	0xf80
    28f0:	00000000 	sll	zero,zero,0x0
    28f4:	24030001 	addiu	v1,zero,1
    28f8:	14430006 	bne	v0,v1,0x2914
    28fc:	00000000 	sll	zero,zero,0x0
    2900:	02202021 	addu	a0,s1,zero
    2904:	0c000756 	jal	0x1d58
    2908:	00000000 	sll	zero,zero,0x0
    290c:	08000a7e 	j	0x29f8
    2910:	00000000 	sll	zero,zero,0x0
    2914:	02002021 	addu	a0,s0,zero
    2918:	27a50010 	addiu	a1,sp,16
    291c:	24060004 	addiu	a2,zero,4
    2920:	0c0003e0 	jal	0xf80
    2924:	00000000 	sll	zero,zero,0x0
    2928:	24030001 	addiu	v1,zero,1
    292c:	14430005 	bne	v0,v1,0x2944
    2930:	00000000 	sll	zero,zero,0x0
    2934:	0c0004fa 	jal	0x13e8
    2938:	00000000 	sll	zero,zero,0x0
    293c:	08000a7e 	j	0x29f8
    2940:	00000000 	sll	zero,zero,0x0
    2944:	02002021 	addu	a0,s0,zero
    2948:	240500d0 	addiu	a1,zero,208
    294c:	24060005 	addiu	a2,zero,5
    2950:	0c0003e0 	jal	0xf80
    2954:	00000000 	sll	zero,zero,0x0
    2958:	24030001 	addiu	v1,zero,1
    295c:	14430006 	bne	v0,v1,0x2978
    2960:	00000000 	sll	zero,zero,0x0
    2964:	02202021 	addu	a0,s1,zero
    2968:	0c0008a6 	jal	0x2298
    296c:	00000000 	sll	zero,zero,0x0
    2970:	08000a7e 	j	0x29f8
    2974:	00000000 	sll	zero,zero,0x0
    2978:	02002021 	addu	a0,s0,zero
    297c:	240500e4 	addiu	a1,zero,228
    2980:	24060004 	addiu	a2,zero,4
    2984:	0c0003e0 	jal	0xf80
    2988:	00000000 	sll	zero,zero,0x0
    298c:	24030001 	addiu	v1,zero,1
    2990:	14430005 	bne	v0,v1,0x29a8
    2994:	00000000 	sll	zero,zero,0x0
    2998:	0c0008db 	jal	0x236c
    299c:	00000000 	sll	zero,zero,0x0
    29a0:	08000a7e 	j	0x29f8
    29a4:	00000000 	sll	zero,zero,0x0
    29a8:	02002021 	addu	a0,s0,zero
    29ac:	27a50020 	addiu	a1,sp,32
    29b0:	24060006 	addiu	a2,zero,6
    29b4:	0c0003e0 	jal	0xf80
    29b8:	00000000 	sll	zero,zero,0x0
    29bc:	24030001 	addiu	v1,zero,1
    29c0:	14430005 	bne	v0,v1,0x29d8
    29c4:	00000000 	sll	zero,zero,0x0
    29c8:	0c0008b3 	jal	0x22cc
    29cc:	00000000 	sll	zero,zero,0x0
    29d0:	08000a7e 	j	0x29f8
    29d4:	00000000 	sll	zero,zero,0x0
    29d8:	24040044 	addiu	a0,zero,68
    29dc:	24050400 	addiu	a1,zero,1024
    29e0:	0c000466 	jal	0x1198
    29e4:	00000000 	sll	zero,zero,0x0
    29e8:	2404000d 	addiu	a0,zero,13
    29ec:	24050700 	addiu	a1,zero,1792
    29f0:	0c00045b 	jal	0x116c
    29f4:	00000000 	sll	zero,zero,0x0
    29f8:	8fbf0044 	lw	ra,68(sp)
    29fc:	8fb10040 	lw	s1,64(sp)
    2a00:	8fb0003c 	lw	s0,60(sp)
    2a04:	27bd0048 	addiu	sp,sp,72
    2a08:	03e00008 	jr	ra
    2a0c:	00000000 	sll	zero,zero,0x0
    2a10:	27bdff70 	addiu	sp,sp,-144
    2a14:	afbf008c 	sw	ra,140(sp)
    2a18:	afb00088 	sw	s0,136(sp)
    2a1c:	24025f70 	addiu	v0,zero,24432
    2a20:	0002e820 	add	sp,zero,v0
    2a24:	2402abcd 	addiu	v0,zero,-21555
    2a28:	a7a20074 	sh	v0,116(sp)
    2a2c:	24021122 	addiu	v0,zero,4386
    2a30:	a7a20076 	sh	v0,118(sp)
    2a34:	0c00051a 	jal	0x1468
    2a38:	00000000 	sll	zero,zero,0x0
    2a3c:	27b00074 	addiu	s0,sp,116
    2a40:	27a20010 	addiu	v0,sp,16
    2a44:	ac400000 	sw	zero,0(v0)
    2a48:	24420004 	addiu	v0,v0,4
    2a4c:	1450fffd 	bne	v0,s0,0x2a44
    2a50:	00000000 	sll	zero,zero,0x0
    2a54:	2404001c 	addiu	a0,zero,28
    2a58:	24050200 	addiu	a1,zero,512
    2a5c:	0c000466 	jal	0x1198
    2a60:	00000000 	sll	zero,zero,0x0
    2a64:	27a40010 	addiu	a0,sp,16
    2a68:	0c00094c 	jal	0x2530
    2a6c:	00000000 	sll	zero,zero,0x0
    2a70:	27a40010 	addiu	a0,sp,16
    2a74:	02002821 	addu	a1,s0,zero
    2a78:	27a60078 	addiu	a2,sp,120
    2a7c:	0c0009ce 	jal	0x2738
    2a80:	00000000 	sll	zero,zero,0x0
    2a84:	8fa40074 	lw	a0,116(sp)
    2a88:	27a50078 	addiu	a1,sp,120
    2a8c:	0c0009ee 	jal	0x27b8
    2a90:	00000000 	sll	zero,zero,0x0
    2a94:	08000a90 	j	0x2a40
    2a98:	00000000 	sll	zero,zero,0x0
    2a9c:	00000000 	sll	zero,zero,0x0
    2aa0:	00000000 	sll	zero,zero,0x0
    2aa4:	00000000 	sll	zero,zero,0x0
    2aa8:	00000000 	sll	zero,zero,0x0
    2aac:	00000000 	sll	zero,zero,0x0
    2ab0:	00000000 	sll	zero,zero,0x0
    2ab4:	00000000 	sll	zero,zero,0x0
    2ab8:	00000000 	sll	zero,zero,0x0
    2abc:	00000000 	sll	zero,zero,0x0
    2ac0:	00000000 	sll	zero,zero,0x0
    2ac4:	00000000 	sll	zero,zero,0x0
    2ac8:	00000000 	sll	zero,zero,0x0
    2acc:	00000000 	sll	zero,zero,0x0
    2ad0:	00000000 	sll	zero,zero,0x0
    2ad4:	00000000 	sll	zero,zero,0x0
    2ad8:	00000000 	sll	zero,zero,0x0
    2adc:	00000000 	sll	zero,zero,0x0
    2ae0:	00000000 	sll	zero,zero,0x0
    2ae4:	00000000 	sll	zero,zero,0x0
    2ae8:	00000000 	sll	zero,zero,0x0
    2aec:	00000000 	sll	zero,zero,0x0
    2af0:	00000000 	sll	zero,zero,0x0
    2af4:	00000000 	sll	zero,zero,0x0
    2af8:	00000000 	sll	zero,zero,0x0
    2afc:	00000000 	sll	zero,zero,0x0
    2b00:	00000000 	sll	zero,zero,0x0
    2b04:	00000000 	sll	zero,zero,0x0
    2b08:	00000000 	sll	zero,zero,0x0
    2b0c:	00000000 	sll	zero,zero,0x0
    2b10:	00000000 	sll	zero,zero,0x0
    2b14:	00000000 	sll	zero,zero,0x0
    2b18:	00000000 	sll	zero,zero,0x0
    2b1c:	00000000 	sll	zero,zero,0x0
    2b20:	00000000 	sll	zero,zero,0x0
    2b24:	00000000 	sll	zero,zero,0x0
    2b28:	00000000 	sll	zero,zero,0x0
    2b2c:	00000000 	sll	zero,zero,0x0
    2b30:	00000000 	sll	zero,zero,0x0
    2b34:	00000000 	sll	zero,zero,0x0
    2b38:	00000000 	sll	zero,zero,0x0
    2b3c:	00000000 	sll	zero,zero,0x0
    2b40:	00000000 	sll	zero,zero,0x0
    2b44:	00000000 	sll	zero,zero,0x0
    2b48:	00000000 	sll	zero,zero,0x0
    2b4c:	00000000 	sll	zero,zero,0x0
    2b50:	00000000 	sll	zero,zero,0x0
    2b54:	00000000 	sll	zero,zero,0x0
    2b58:	00000000 	sll	zero,zero,0x0
    2b5c:	00000000 	sll	zero,zero,0x0
    2b60:	00000000 	sll	zero,zero,0x0
    2b64:	00000000 	sll	zero,zero,0x0
    2b68:	00000000 	sll	zero,zero,0x0
    2b6c:	00000000 	sll	zero,zero,0x0
    2b70:	00000000 	sll	zero,zero,0x0
    2b74:	00000000 	sll	zero,zero,0x0
    2b78:	00000000 	sll	zero,zero,0x0
    2b7c:	00000000 	sll	zero,zero,0x0
    2b80:	00000000 	sll	zero,zero,0x0
    2b84:	00000000 	sll	zero,zero,0x0
    2b88:	00000000 	sll	zero,zero,0x0
    2b8c:	00000000 	sll	zero,zero,0x0
    2b90:	00000000 	sll	zero,zero,0x0
    2b94:	00000000 	sll	zero,zero,0x0
    2b98:	00000000 	sll	zero,zero,0x0
    2b9c:	00000000 	sll	zero,zero,0x0
    2ba0:	00000000 	sll	zero,zero,0x0
    2ba4:	00000000 	sll	zero,zero,0x0
    2ba8:	00000000 	sll	zero,zero,0x0
    2bac:	00000000 	sll	zero,zero,0x0
    2bb0:	00000000 	sll	zero,zero,0x0
    2bb4:	00000000 	sll	zero,zero,0x0
    2bb8:	00000000 	sll	zero,zero,0x0
    2bbc:	00000000 	sll	zero,zero,0x0
    2bc0:	00000000 	sll	zero,zero,0x0
    2bc4:	00000000 	sll	zero,zero,0x0
    2bc8:	00000000 	sll	zero,zero,0x0
    2bcc:	00000000 	sll	zero,zero,0x0
    2bd0:	00000000 	sll	zero,zero,0x0
    2bd4:	00000000 	sll	zero,zero,0x0
    2bd8:	00000000 	sll	zero,zero,0x0
    2bdc:	00000000 	sll	zero,zero,0x0
    2be0:	00000000 	sll	zero,zero,0x0
    2be4:	00000000 	sll	zero,zero,0x0
    2be8:	00000000 	sll	zero,zero,0x0
    2bec:	00000000 	sll	zero,zero,0x0
    2bf0:	00000000 	sll	zero,zero,0x0
    2bf4:	00000000 	sll	zero,zero,0x0
    2bf8:	00000000 	sll	zero,zero,0x0
    2bfc:	00000000 	sll	zero,zero,0x0
    2c00:	00000000 	sll	zero,zero,0x0
    2c04:	00000000 	sll	zero,zero,0x0
    2c08:	00000000 	sll	zero,zero,0x0
    2c0c:	00000000 	sll	zero,zero,0x0
    2c10:	00000000 	sll	zero,zero,0x0
    2c14:	00000000 	sll	zero,zero,0x0
    2c18:	00000000 	sll	zero,zero,0x0
    2c1c:	00000000 	sll	zero,zero,0x0
    2c20:	00000000 	sll	zero,zero,0x0
    2c24:	00000000 	sll	zero,zero,0x0
    2c28:	00000000 	sll	zero,zero,0x0
    2c2c:	00000000 	sll	zero,zero,0x0
    2c30:	00000000 	sll	zero,zero,0x0
    2c34:	00000000 	sll	zero,zero,0x0
    2c38:	00000000 	sll	zero,zero,0x0
    2c3c:	00000000 	sll	zero,zero,0x0
    2c40:	00000000 	sll	zero,zero,0x0
    2c44:	00000000 	sll	zero,zero,0x0
    2c48:	00000000 	sll	zero,zero,0x0
    2c4c:	00000000 	sll	zero,zero,0x0
    2c50:	00000000 	sll	zero,zero,0x0
    2c54:	00000000 	sll	zero,zero,0x0
    2c58:	00000000 	sll	zero,zero,0x0
    2c5c:	00000000 	sll	zero,zero,0x0
    2c60:	00000000 	sll	zero,zero,0x0
    2c64:	00000000 	sll	zero,zero,0x0
    2c68:	00000000 	sll	zero,zero,0x0
    2c6c:	00000000 	sll	zero,zero,0x0
    2c70:	00000000 	sll	zero,zero,0x0
    2c74:	00000000 	sll	zero,zero,0x0
    2c78:	00000000 	sll	zero,zero,0x0
    2c7c:	00000000 	sll	zero,zero,0x0
    2c80:	00000000 	sll	zero,zero,0x0
    2c84:	00000000 	sll	zero,zero,0x0
    2c88:	00000000 	sll	zero,zero,0x0
    2c8c:	00000000 	sll	zero,zero,0x0
    2c90:	00000000 	sll	zero,zero,0x0
    2c94:	00000000 	sll	zero,zero,0x0
    2c98:	00000000 	sll	zero,zero,0x0
    2c9c:	00000000 	sll	zero,zero,0x0
    2ca0:	00000000 	sll	zero,zero,0x0
    2ca4:	00000000 	sll	zero,zero,0x0
    2ca8:	00000000 	sll	zero,zero,0x0
    2cac:	00000000 	sll	zero,zero,0x0
    2cb0:	00000000 	sll	zero,zero,0x0
    2cb4:	00000000 	sll	zero,zero,0x0
    2cb8:	00000000 	sll	zero,zero,0x0
    2cbc:	00000000 	sll	zero,zero,0x0
    2cc0:	00000000 	sll	zero,zero,0x0
    2cc4:	00000000 	sll	zero,zero,0x0
    2cc8:	00000000 	sll	zero,zero,0x0
    2ccc:	00000000 	sll	zero,zero,0x0
    2cd0:	00000000 	sll	zero,zero,0x0
    2cd4:	00000000 	sll	zero,zero,0x0
    2cd8:	00000000 	sll	zero,zero,0x0
    2cdc:	00000000 	sll	zero,zero,0x0
    2ce0:	00000000 	sll	zero,zero,0x0
    2ce4:	00000000 	sll	zero,zero,0x0
    2ce8:	00000000 	sll	zero,zero,0x0
    2cec:	00000000 	sll	zero,zero,0x0
    2cf0:	00000000 	sll	zero,zero,0x0
    2cf4:	00000000 	sll	zero,zero,0x0
    2cf8:	00000000 	sll	zero,zero,0x0
    2cfc:	00000000 	sll	zero,zero,0x0
    2d00:	00000000 	sll	zero,zero,0x0
    2d04:	00000000 	sll	zero,zero,0x0
    2d08:	00000000 	sll	zero,zero,0x0
    2d0c:	00000000 	sll	zero,zero,0x0
    2d10:	00000000 	sll	zero,zero,0x0
    2d14:	00000000 	sll	zero,zero,0x0
    2d18:	00000000 	sll	zero,zero,0x0
    2d1c:	00000000 	sll	zero,zero,0x0
    2d20:	00000000 	sll	zero,zero,0x0
    2d24:	00000000 	sll	zero,zero,0x0
    2d28:	00000000 	sll	zero,zero,0x0
    2d2c:	00000000 	sll	zero,zero,0x0
    2d30:	00000000 	sll	zero,zero,0x0
    2d34:	00000000 	sll	zero,zero,0x0
    2d38:	00000000 	sll	zero,zero,0x0
    2d3c:	00000000 	sll	zero,zero,0x0
    2d40:	00000000 	sll	zero,zero,0x0
    2d44:	00000000 	sll	zero,zero,0x0
    2d48:	00000000 	sll	zero,zero,0x0
    2d4c:	00000000 	sll	zero,zero,0x0
    2d50:	00000000 	sll	zero,zero,0x0
    2d54:	00000000 	sll	zero,zero,0x0
    2d58:	00000000 	sll	zero,zero,0x0
    2d5c:	00000000 	sll	zero,zero,0x0
    2d60:	00000000 	sll	zero,zero,0x0
    2d64:	00000000 	sll	zero,zero,0x0
    2d68:	00000000 	sll	zero,zero,0x0
    2d6c:	00000000 	sll	zero,zero,0x0
    2d70:	00000000 	sll	zero,zero,0x0
    2d74:	00000000 	sll	zero,zero,0x0
    2d78:	00000000 	sll	zero,zero,0x0
    2d7c:	00000000 	sll	zero,zero,0x0
    2d80:	00000000 	sll	zero,zero,0x0
    2d84:	00000000 	sll	zero,zero,0x0
    2d88:	00000000 	sll	zero,zero,0x0
    2d8c:	00000000 	sll	zero,zero,0x0
    2d90:	00000000 	sll	zero,zero,0x0
    2d94:	00000000 	sll	zero,zero,0x0
    2d98:	00000000 	sll	zero,zero,0x0
    2d9c:	00000000 	sll	zero,zero,0x0
    2da0:	00000000 	sll	zero,zero,0x0
    2da4:	00000000 	sll	zero,zero,0x0
    2da8:	00000000 	sll	zero,zero,0x0
    2dac:	00000000 	sll	zero,zero,0x0
    2db0:	00000000 	sll	zero,zero,0x0
    2db4:	00000000 	sll	zero,zero,0x0
    2db8:	00000000 	sll	zero,zero,0x0
    2dbc:	00000000 	sll	zero,zero,0x0
    2dc0:	00000000 	sll	zero,zero,0x0
    2dc4:	00000000 	sll	zero,zero,0x0
    2dc8:	00000000 	sll	zero,zero,0x0
    2dcc:	00000000 	sll	zero,zero,0x0
    2dd0:	00000000 	sll	zero,zero,0x0
    2dd4:	00000000 	sll	zero,zero,0x0
    2dd8:	00000000 	sll	zero,zero,0x0
    2ddc:	00000000 	sll	zero,zero,0x0
    2de0:	00000000 	sll	zero,zero,0x0
    2de4:	00000000 	sll	zero,zero,0x0
    2de8:	00000000 	sll	zero,zero,0x0
    2dec:	00000000 	sll	zero,zero,0x0
    2df0:	00000000 	sll	zero,zero,0x0
    2df4:	00000000 	sll	zero,zero,0x0
    2df8:	00000000 	sll	zero,zero,0x0
    2dfc:	00000000 	sll	zero,zero,0x0
    2e00:	00000000 	sll	zero,zero,0x0
    2e04:	00000000 	sll	zero,zero,0x0
    2e08:	00000000 	sll	zero,zero,0x0
    2e0c:	00000000 	sll	zero,zero,0x0
    2e10:	00000000 	sll	zero,zero,0x0
    2e14:	00000000 	sll	zero,zero,0x0
    2e18:	00000000 	sll	zero,zero,0x0
    2e1c:	00000000 	sll	zero,zero,0x0
    2e20:	00000000 	sll	zero,zero,0x0
    2e24:	00000000 	sll	zero,zero,0x0
    2e28:	00000000 	sll	zero,zero,0x0
    2e2c:	00000000 	sll	zero,zero,0x0
    2e30:	00000000 	sll	zero,zero,0x0
    2e34:	00000000 	sll	zero,zero,0x0
    2e38:	00000000 	sll	zero,zero,0x0
    2e3c:	00000000 	sll	zero,zero,0x0
    2e40:	00000000 	sll	zero,zero,0x0
    2e44:	00000000 	sll	zero,zero,0x0
    2e48:	00000000 	sll	zero,zero,0x0
    2e4c:	00000000 	sll	zero,zero,0x0
    2e50:	00000000 	sll	zero,zero,0x0
    2e54:	00000000 	sll	zero,zero,0x0
    2e58:	00000000 	sll	zero,zero,0x0
    2e5c:	00000000 	sll	zero,zero,0x0
    2e60:	00000000 	sll	zero,zero,0x0
    2e64:	00000000 	sll	zero,zero,0x0
    2e68:	00000000 	sll	zero,zero,0x0
    2e6c:	00000000 	sll	zero,zero,0x0
    2e70:	00000000 	sll	zero,zero,0x0
    2e74:	00000000 	sll	zero,zero,0x0
    2e78:	00000000 	sll	zero,zero,0x0
    2e7c:	00000000 	sll	zero,zero,0x0
    2e80:	00000000 	sll	zero,zero,0x0
    2e84:	00000000 	sll	zero,zero,0x0
    2e88:	00000000 	sll	zero,zero,0x0
    2e8c:	00000000 	sll	zero,zero,0x0
    2e90:	00000000 	sll	zero,zero,0x0
    2e94:	00000000 	sll	zero,zero,0x0
    2e98:	00000000 	sll	zero,zero,0x0
    2e9c:	00000000 	sll	zero,zero,0x0
    2ea0:	00000000 	sll	zero,zero,0x0
    2ea4:	00000000 	sll	zero,zero,0x0
    2ea8:	00000000 	sll	zero,zero,0x0
    2eac:	00000000 	sll	zero,zero,0x0
    2eb0:	00000000 	sll	zero,zero,0x0
    2eb4:	00000000 	sll	zero,zero,0x0
    2eb8:	00000000 	sll	zero,zero,0x0
    2ebc:	00000000 	sll	zero,zero,0x0
    2ec0:	00000000 	sll	zero,zero,0x0
    2ec4:	00000000 	sll	zero,zero,0x0
    2ec8:	00000000 	sll	zero,zero,0x0
    2ecc:	00000000 	sll	zero,zero,0x0
    2ed0:	00000000 	sll	zero,zero,0x0
    2ed4:	00000000 	sll	zero,zero,0x0
    2ed8:	00000000 	sll	zero,zero,0x0
    2edc:	00000000 	sll	zero,zero,0x0
    2ee0:	00000000 	sll	zero,zero,0x0
    2ee4:	00000000 	sll	zero,zero,0x0
    2ee8:	00000000 	sll	zero,zero,0x0
    2eec:	00000000 	sll	zero,zero,0x0
    2ef0:	00000000 	sll	zero,zero,0x0
    2ef4:	00000000 	sll	zero,zero,0x0
    2ef8:	00000000 	sll	zero,zero,0x0
    2efc:	00000000 	sll	zero,zero,0x0
    2f00:	00000000 	sll	zero,zero,0x0
    2f04:	00000000 	sll	zero,zero,0x0
    2f08:	00000000 	sll	zero,zero,0x0
    2f0c:	00000000 	sll	zero,zero,0x0
    2f10:	00000000 	sll	zero,zero,0x0
    2f14:	00000000 	sll	zero,zero,0x0
    2f18:	00000000 	sll	zero,zero,0x0
    2f1c:	00000000 	sll	zero,zero,0x0
    2f20:	00000000 	sll	zero,zero,0x0
    2f24:	00000000 	sll	zero,zero,0x0
    2f28:	00000000 	sll	zero,zero,0x0
    2f2c:	00000000 	sll	zero,zero,0x0
    2f30:	00000000 	sll	zero,zero,0x0
    2f34:	00000000 	sll	zero,zero,0x0
    2f38:	00000000 	sll	zero,zero,0x0
    2f3c:	00000000 	sll	zero,zero,0x0
    2f40:	00000000 	sll	zero,zero,0x0
    2f44:	00000000 	sll	zero,zero,0x0
    2f48:	00000000 	sll	zero,zero,0x0
    2f4c:	00000000 	sll	zero,zero,0x0
    2f50:	00000000 	sll	zero,zero,0x0
    2f54:	00000000 	sll	zero,zero,0x0
    2f58:	00000000 	sll	zero,zero,0x0
    2f5c:	00000000 	sll	zero,zero,0x0
    2f60:	00000000 	sll	zero,zero,0x0
    2f64:	00000000 	sll	zero,zero,0x0
    2f68:	00000000 	sll	zero,zero,0x0
    2f6c:	00000000 	sll	zero,zero,0x0
    2f70:	00000000 	sll	zero,zero,0x0
    2f74:	00000000 	sll	zero,zero,0x0
    2f78:	00000000 	sll	zero,zero,0x0
    2f7c:	00000000 	sll	zero,zero,0x0
    2f80:	00000000 	sll	zero,zero,0x0
    2f84:	00000000 	sll	zero,zero,0x0
    2f88:	00000000 	sll	zero,zero,0x0
    2f8c:	00000000 	sll	zero,zero,0x0
    2f90:	00000000 	sll	zero,zero,0x0
    2f94:	00000000 	sll	zero,zero,0x0
    2f98:	00000000 	sll	zero,zero,0x0
    2f9c:	00000000 	sll	zero,zero,0x0
    2fa0:	00000000 	sll	zero,zero,0x0
    2fa4:	00000000 	sll	zero,zero,0x0
    2fa8:	00000000 	sll	zero,zero,0x0
    2fac:	00000000 	sll	zero,zero,0x0
    2fb0:	00000000 	sll	zero,zero,0x0
    2fb4:	00000000 	sll	zero,zero,0x0
    2fb8:	00000000 	sll	zero,zero,0x0
    2fbc:	00000000 	sll	zero,zero,0x0
    2fc0:	00000000 	sll	zero,zero,0x0
    2fc4:	00000000 	sll	zero,zero,0x0
    2fc8:	00000000 	sll	zero,zero,0x0
    2fcc:	00000000 	sll	zero,zero,0x0
    2fd0:	00000000 	sll	zero,zero,0x0
    2fd4:	00000000 	sll	zero,zero,0x0
    2fd8:	00000000 	sll	zero,zero,0x0
    2fdc:	00000000 	sll	zero,zero,0x0
    2fe0:	00000000 	sll	zero,zero,0x0
    2fe4:	00000000 	sll	zero,zero,0x0
    2fe8:	00000000 	sll	zero,zero,0x0
    2fec:	00000000 	sll	zero,zero,0x0
    2ff0:	00000000 	sll	zero,zero,0x0
    2ff4:	00000000 	sll	zero,zero,0x0
    2ff8:	00000000 	sll	zero,zero,0x0
    2ffc:	00000000 	sll	zero,zero,0x0
    3000:	00000000 	sll	zero,zero,0x0
    3004:	00000000 	sll	zero,zero,0x0
    3008:	00000000 	sll	zero,zero,0x0
    300c:	00000000 	sll	zero,zero,0x0
    3010:	00000000 	sll	zero,zero,0x0
    3014:	00000000 	sll	zero,zero,0x0
    3018:	00000000 	sll	zero,zero,0x0
    301c:	00000000 	sll	zero,zero,0x0
    3020:	00000000 	sll	zero,zero,0x0
    3024:	00000000 	sll	zero,zero,0x0
    3028:	00000000 	sll	zero,zero,0x0
    302c:	00000000 	sll	zero,zero,0x0
    3030:	00000000 	sll	zero,zero,0x0
    3034:	00000000 	sll	zero,zero,0x0
    3038:	00000000 	sll	zero,zero,0x0
    303c:	00000000 	sll	zero,zero,0x0
    3040:	00000000 	sll	zero,zero,0x0
    3044:	00000000 	sll	zero,zero,0x0
    3048:	00000000 	sll	zero,zero,0x0
    304c:	00000000 	sll	zero,zero,0x0
    3050:	00000000 	sll	zero,zero,0x0
    3054:	00000000 	sll	zero,zero,0x0
    3058:	00000000 	sll	zero,zero,0x0
    305c:	00000000 	sll	zero,zero,0x0
    3060:	00000000 	sll	zero,zero,0x0
    3064:	00000000 	sll	zero,zero,0x0
    3068:	00000000 	sll	zero,zero,0x0
    306c:	00000000 	sll	zero,zero,0x0
    3070:	00000000 	sll	zero,zero,0x0
    3074:	00000000 	sll	zero,zero,0x0
    3078:	00000000 	sll	zero,zero,0x0
    307c:	00000000 	sll	zero,zero,0x0
    3080:	00000000 	sll	zero,zero,0x0
    3084:	00000000 	sll	zero,zero,0x0
    3088:	00000000 	sll	zero,zero,0x0
    308c:	00000000 	sll	zero,zero,0x0
    3090:	00000000 	sll	zero,zero,0x0
    3094:	00000000 	sll	zero,zero,0x0
    3098:	00000000 	sll	zero,zero,0x0
    309c:	00000000 	sll	zero,zero,0x0
    30a0:	00000000 	sll	zero,zero,0x0
    30a4:	00000000 	sll	zero,zero,0x0
    30a8:	00000000 	sll	zero,zero,0x0
    30ac:	00000000 	sll	zero,zero,0x0
    30b0:	00000000 	sll	zero,zero,0x0
    30b4:	00000000 	sll	zero,zero,0x0
    30b8:	00000000 	sll	zero,zero,0x0
    30bc:	00000000 	sll	zero,zero,0x0
    30c0:	00000000 	sll	zero,zero,0x0
    30c4:	00000000 	sll	zero,zero,0x0
    30c8:	00000000 	sll	zero,zero,0x0
    30cc:	00000000 	sll	zero,zero,0x0
    30d0:	00000000 	sll	zero,zero,0x0
    30d4:	00000000 	sll	zero,zero,0x0
    30d8:	00000000 	sll	zero,zero,0x0
    30dc:	00000000 	sll	zero,zero,0x0
    30e0:	00000000 	sll	zero,zero,0x0
    30e4:	00000000 	sll	zero,zero,0x0
    30e8:	00000000 	sll	zero,zero,0x0
    30ec:	00000000 	sll	zero,zero,0x0
    30f0:	00000000 	sll	zero,zero,0x0
    30f4:	00000000 	sll	zero,zero,0x0
    30f8:	00000000 	sll	zero,zero,0x0
    30fc:	00000000 	sll	zero,zero,0x0
    3100:	00000000 	sll	zero,zero,0x0
    3104:	00000000 	sll	zero,zero,0x0
    3108:	00000000 	sll	zero,zero,0x0
    310c:	00000000 	sll	zero,zero,0x0
    3110:	00000000 	sll	zero,zero,0x0
    3114:	00000000 	sll	zero,zero,0x0
    3118:	00000000 	sll	zero,zero,0x0
    311c:	00000000 	sll	zero,zero,0x0
    3120:	00000000 	sll	zero,zero,0x0
    3124:	00000000 	sll	zero,zero,0x0
    3128:	00000000 	sll	zero,zero,0x0
    312c:	00000000 	sll	zero,zero,0x0
    3130:	00000000 	sll	zero,zero,0x0
    3134:	00000000 	sll	zero,zero,0x0
    3138:	00000000 	sll	zero,zero,0x0
    313c:	00000000 	sll	zero,zero,0x0
    3140:	00000000 	sll	zero,zero,0x0
    3144:	00000000 	sll	zero,zero,0x0
    3148:	00000000 	sll	zero,zero,0x0
    314c:	00000000 	sll	zero,zero,0x0
    3150:	00000000 	sll	zero,zero,0x0
    3154:	00000000 	sll	zero,zero,0x0
    3158:	00000000 	sll	zero,zero,0x0
    315c:	00000000 	sll	zero,zero,0x0
    3160:	00000000 	sll	zero,zero,0x0
    3164:	00000000 	sll	zero,zero,0x0
    3168:	00000000 	sll	zero,zero,0x0
    316c:	00000000 	sll	zero,zero,0x0
    3170:	00000000 	sll	zero,zero,0x0
    3174:	00000000 	sll	zero,zero,0x0
    3178:	00000000 	sll	zero,zero,0x0
    317c:	00000000 	sll	zero,zero,0x0
    3180:	00000000 	sll	zero,zero,0x0
    3184:	00000000 	sll	zero,zero,0x0
    3188:	00000000 	sll	zero,zero,0x0
    318c:	00000000 	sll	zero,zero,0x0
    3190:	00000000 	sll	zero,zero,0x0
    3194:	00000000 	sll	zero,zero,0x0
    3198:	00000000 	sll	zero,zero,0x0
    319c:	00000000 	sll	zero,zero,0x0
    31a0:	00000000 	sll	zero,zero,0x0
    31a4:	00000000 	sll	zero,zero,0x0
    31a8:	00000000 	sll	zero,zero,0x0
    31ac:	00000000 	sll	zero,zero,0x0
    31b0:	00000000 	sll	zero,zero,0x0
    31b4:	00000000 	sll	zero,zero,0x0
    31b8:	00000000 	sll	zero,zero,0x0
    31bc:	00000000 	sll	zero,zero,0x0
    31c0:	00000000 	sll	zero,zero,0x0
    31c4:	00000000 	sll	zero,zero,0x0
    31c8:	00000000 	sll	zero,zero,0x0
    31cc:	00000000 	sll	zero,zero,0x0
    31d0:	00000000 	sll	zero,zero,0x0
    31d4:	00000000 	sll	zero,zero,0x0
    31d8:	00000000 	sll	zero,zero,0x0
    31dc:	00000000 	sll	zero,zero,0x0
    31e0:	00000000 	sll	zero,zero,0x0
    31e4:	00000000 	sll	zero,zero,0x0
    31e8:	00000000 	sll	zero,zero,0x0
    31ec:	00000000 	sll	zero,zero,0x0
    31f0:	00000000 	sll	zero,zero,0x0
    31f4:	00000000 	sll	zero,zero,0x0
    31f8:	00000000 	sll	zero,zero,0x0
    31fc:	00000000 	sll	zero,zero,0x0
    3200:	00000000 	sll	zero,zero,0x0
    3204:	00000000 	sll	zero,zero,0x0
    3208:	00000000 	sll	zero,zero,0x0
    320c:	00000000 	sll	zero,zero,0x0
    3210:	00000000 	sll	zero,zero,0x0
    3214:	00000000 	sll	zero,zero,0x0
    3218:	00000000 	sll	zero,zero,0x0
    321c:	00000000 	sll	zero,zero,0x0
    3220:	00000000 	sll	zero,zero,0x0
    3224:	00000000 	sll	zero,zero,0x0
    3228:	00000000 	sll	zero,zero,0x0
    322c:	00000000 	sll	zero,zero,0x0
    3230:	00000000 	sll	zero,zero,0x0
    3234:	00000000 	sll	zero,zero,0x0
    3238:	00000000 	sll	zero,zero,0x0
    323c:	00000000 	sll	zero,zero,0x0
    3240:	00000000 	sll	zero,zero,0x0
    3244:	00000000 	sll	zero,zero,0x0
    3248:	00000000 	sll	zero,zero,0x0
    324c:	00000000 	sll	zero,zero,0x0
    3250:	00000000 	sll	zero,zero,0x0
    3254:	00000000 	sll	zero,zero,0x0
    3258:	00000000 	sll	zero,zero,0x0
    325c:	00000000 	sll	zero,zero,0x0
    3260:	00000000 	sll	zero,zero,0x0
    3264:	00000000 	sll	zero,zero,0x0
    3268:	00000000 	sll	zero,zero,0x0
    326c:	00000000 	sll	zero,zero,0x0
    3270:	00000000 	sll	zero,zero,0x0
    3274:	00000000 	sll	zero,zero,0x0
    3278:	00000000 	sll	zero,zero,0x0
    327c:	00000000 	sll	zero,zero,0x0
    3280:	00000000 	sll	zero,zero,0x0
    3284:	00000000 	sll	zero,zero,0x0
    3288:	00000000 	sll	zero,zero,0x0
    328c:	00000000 	sll	zero,zero,0x0
    3290:	00000000 	sll	zero,zero,0x0
    3294:	00000000 	sll	zero,zero,0x0
    3298:	00000000 	sll	zero,zero,0x0
    329c:	00000000 	sll	zero,zero,0x0
    32a0:	00000000 	sll	zero,zero,0x0
    32a4:	00000000 	sll	zero,zero,0x0
    32a8:	00000000 	sll	zero,zero,0x0
    32ac:	00000000 	sll	zero,zero,0x0
    32b0:	00000000 	sll	zero,zero,0x0
    32b4:	00000000 	sll	zero,zero,0x0
    32b8:	00000000 	sll	zero,zero,0x0
    32bc:	00000000 	sll	zero,zero,0x0
    32c0:	00000000 	sll	zero,zero,0x0
    32c4:	00000000 	sll	zero,zero,0x0
    32c8:	00000000 	sll	zero,zero,0x0
    32cc:	00000000 	sll	zero,zero,0x0
    32d0:	00000000 	sll	zero,zero,0x0
    32d4:	00000000 	sll	zero,zero,0x0
    32d8:	00000000 	sll	zero,zero,0x0
    32dc:	00000000 	sll	zero,zero,0x0
    32e0:	00000000 	sll	zero,zero,0x0
    32e4:	00000000 	sll	zero,zero,0x0
    32e8:	00000000 	sll	zero,zero,0x0
    32ec:	00000000 	sll	zero,zero,0x0
    32f0:	00000000 	sll	zero,zero,0x0
    32f4:	00000000 	sll	zero,zero,0x0
    32f8:	00000000 	sll	zero,zero,0x0
    32fc:	00000000 	sll	zero,zero,0x0
    3300:	00000000 	sll	zero,zero,0x0
    3304:	00000000 	sll	zero,zero,0x0
    3308:	00000000 	sll	zero,zero,0x0
    330c:	00000000 	sll	zero,zero,0x0
    3310:	00000000 	sll	zero,zero,0x0
    3314:	00000000 	sll	zero,zero,0x0
    3318:	00000000 	sll	zero,zero,0x0
    331c:	00000000 	sll	zero,zero,0x0
    3320:	00000000 	sll	zero,zero,0x0
    3324:	00000000 	sll	zero,zero,0x0
    3328:	00000000 	sll	zero,zero,0x0
    332c:	00000000 	sll	zero,zero,0x0
    3330:	00000000 	sll	zero,zero,0x0
    3334:	00000000 	sll	zero,zero,0x0
    3338:	00000000 	sll	zero,zero,0x0
    333c:	00000000 	sll	zero,zero,0x0
    3340:	00000000 	sll	zero,zero,0x0
    3344:	00000000 	sll	zero,zero,0x0
    3348:	00000000 	sll	zero,zero,0x0
    334c:	00000000 	sll	zero,zero,0x0
    3350:	00000000 	sll	zero,zero,0x0
    3354:	00000000 	sll	zero,zero,0x0
    3358:	00000000 	sll	zero,zero,0x0
    335c:	00000000 	sll	zero,zero,0x0
    3360:	00000000 	sll	zero,zero,0x0
    3364:	00000000 	sll	zero,zero,0x0
    3368:	00000000 	sll	zero,zero,0x0
    336c:	00000000 	sll	zero,zero,0x0
    3370:	00000000 	sll	zero,zero,0x0
    3374:	00000000 	sll	zero,zero,0x0
    3378:	00000000 	sll	zero,zero,0x0
    337c:	00000000 	sll	zero,zero,0x0
    3380:	00000000 	sll	zero,zero,0x0
    3384:	00000000 	sll	zero,zero,0x0
    3388:	00000000 	sll	zero,zero,0x0
    338c:	00000000 	sll	zero,zero,0x0
    3390:	00000000 	sll	zero,zero,0x0
    3394:	00000000 	sll	zero,zero,0x0
    3398:	00000000 	sll	zero,zero,0x0
    339c:	00000000 	sll	zero,zero,0x0
    33a0:	00000000 	sll	zero,zero,0x0
    33a4:	00000000 	sll	zero,zero,0x0
    33a8:	00000000 	sll	zero,zero,0x0
    33ac:	00000000 	sll	zero,zero,0x0
    33b0:	00000000 	sll	zero,zero,0x0
    33b4:	00000000 	sll	zero,zero,0x0
    33b8:	00000000 	sll	zero,zero,0x0
    33bc:	00000000 	sll	zero,zero,0x0
    33c0:	00000000 	sll	zero,zero,0x0
    33c4:	00000000 	sll	zero,zero,0x0
    33c8:	00000000 	sll	zero,zero,0x0
    33cc:	00000000 	sll	zero,zero,0x0
    33d0:	00000000 	sll	zero,zero,0x0
    33d4:	00000000 	sll	zero,zero,0x0
    33d8:	00000000 	sll	zero,zero,0x0
    33dc:	00000000 	sll	zero,zero,0x0
    33e0:	00000000 	sll	zero,zero,0x0
    33e4:	00000000 	sll	zero,zero,0x0
    33e8:	00000000 	sll	zero,zero,0x0
    33ec:	00000000 	sll	zero,zero,0x0
    33f0:	00000000 	sll	zero,zero,0x0
    33f4:	00000000 	sll	zero,zero,0x0
    33f8:	00000000 	sll	zero,zero,0x0
    33fc:	00000000 	sll	zero,zero,0x0
    3400:	00000000 	sll	zero,zero,0x0
    3404:	00000000 	sll	zero,zero,0x0
    3408:	00000000 	sll	zero,zero,0x0
    340c:	00000000 	sll	zero,zero,0x0
    3410:	00000000 	sll	zero,zero,0x0
    3414:	00000000 	sll	zero,zero,0x0
    3418:	00000000 	sll	zero,zero,0x0
    341c:	00000000 	sll	zero,zero,0x0
    3420:	00000000 	sll	zero,zero,0x0
    3424:	00000000 	sll	zero,zero,0x0
    3428:	00000000 	sll	zero,zero,0x0
    342c:	00000000 	sll	zero,zero,0x0
    3430:	00000000 	sll	zero,zero,0x0
    3434:	00000000 	sll	zero,zero,0x0
    3438:	00000000 	sll	zero,zero,0x0
    343c:	00000000 	sll	zero,zero,0x0
    3440:	00000000 	sll	zero,zero,0x0
    3444:	00000000 	sll	zero,zero,0x0
    3448:	00000000 	sll	zero,zero,0x0
    344c:	00000000 	sll	zero,zero,0x0
    3450:	00000000 	sll	zero,zero,0x0
    3454:	00000000 	sll	zero,zero,0x0
    3458:	00000000 	sll	zero,zero,0x0
    345c:	00000000 	sll	zero,zero,0x0
    3460:	00000000 	sll	zero,zero,0x0
    3464:	00000000 	sll	zero,zero,0x0
    3468:	00000000 	sll	zero,zero,0x0
    346c:	00000000 	sll	zero,zero,0x0
    3470:	00000000 	sll	zero,zero,0x0
    3474:	00000000 	sll	zero,zero,0x0
    3478:	00000000 	sll	zero,zero,0x0
    347c:	00000000 	sll	zero,zero,0x0
    3480:	00000000 	sll	zero,zero,0x0
    3484:	00000000 	sll	zero,zero,0x0
    3488:	00000000 	sll	zero,zero,0x0
    348c:	00000000 	sll	zero,zero,0x0
    3490:	00000000 	sll	zero,zero,0x0
    3494:	00000000 	sll	zero,zero,0x0
    3498:	00000000 	sll	zero,zero,0x0
    349c:	00000000 	sll	zero,zero,0x0
    34a0:	00000000 	sll	zero,zero,0x0
    34a4:	00000000 	sll	zero,zero,0x0
    34a8:	00000000 	sll	zero,zero,0x0
    34ac:	00000000 	sll	zero,zero,0x0
    34b0:	00000000 	sll	zero,zero,0x0
    34b4:	00000000 	sll	zero,zero,0x0
    34b8:	00000000 	sll	zero,zero,0x0
    34bc:	00000000 	sll	zero,zero,0x0
    34c0:	00000000 	sll	zero,zero,0x0
    34c4:	00000000 	sll	zero,zero,0x0
    34c8:	00000000 	sll	zero,zero,0x0
    34cc:	00000000 	sll	zero,zero,0x0
    34d0:	00000000 	sll	zero,zero,0x0
    34d4:	00000000 	sll	zero,zero,0x0
    34d8:	00000000 	sll	zero,zero,0x0
    34dc:	00000000 	sll	zero,zero,0x0
    34e0:	00000000 	sll	zero,zero,0x0
    34e4:	00000000 	sll	zero,zero,0x0
    34e8:	00000000 	sll	zero,zero,0x0
    34ec:	00000000 	sll	zero,zero,0x0
    34f0:	00000000 	sll	zero,zero,0x0
    34f4:	00000000 	sll	zero,zero,0x0
    34f8:	00000000 	sll	zero,zero,0x0
    34fc:	00000000 	sll	zero,zero,0x0
    3500:	00000000 	sll	zero,zero,0x0
    3504:	00000000 	sll	zero,zero,0x0
    3508:	00000000 	sll	zero,zero,0x0
    350c:	00000000 	sll	zero,zero,0x0
    3510:	00000000 	sll	zero,zero,0x0
    3514:	00000000 	sll	zero,zero,0x0
    3518:	00000000 	sll	zero,zero,0x0
    351c:	00000000 	sll	zero,zero,0x0
    3520:	00000000 	sll	zero,zero,0x0
    3524:	00000000 	sll	zero,zero,0x0
    3528:	00000000 	sll	zero,zero,0x0
    352c:	00000000 	sll	zero,zero,0x0
    3530:	00000000 	sll	zero,zero,0x0
    3534:	00000000 	sll	zero,zero,0x0
    3538:	00000000 	sll	zero,zero,0x0
    353c:	00000000 	sll	zero,zero,0x0
    3540:	00000000 	sll	zero,zero,0x0
    3544:	00000000 	sll	zero,zero,0x0
    3548:	00000000 	sll	zero,zero,0x0
    354c:	00000000 	sll	zero,zero,0x0
    3550:	00000000 	sll	zero,zero,0x0
    3554:	00000000 	sll	zero,zero,0x0
    3558:	00000000 	sll	zero,zero,0x0
    355c:	00000000 	sll	zero,zero,0x0
    3560:	00000000 	sll	zero,zero,0x0
    3564:	00000000 	sll	zero,zero,0x0
    3568:	00000000 	sll	zero,zero,0x0
    356c:	00000000 	sll	zero,zero,0x0
    3570:	00000000 	sll	zero,zero,0x0
    3574:	00000000 	sll	zero,zero,0x0
    3578:	00000000 	sll	zero,zero,0x0
    357c:	00000000 	sll	zero,zero,0x0
    3580:	00000000 	sll	zero,zero,0x0
    3584:	00000000 	sll	zero,zero,0x0
    3588:	00000000 	sll	zero,zero,0x0
    358c:	00000000 	sll	zero,zero,0x0
    3590:	00000000 	sll	zero,zero,0x0
    3594:	00000000 	sll	zero,zero,0x0
    3598:	00000000 	sll	zero,zero,0x0
    359c:	00000000 	sll	zero,zero,0x0
    35a0:	00000000 	sll	zero,zero,0x0
    35a4:	00000000 	sll	zero,zero,0x0
    35a8:	00000000 	sll	zero,zero,0x0
    35ac:	00000000 	sll	zero,zero,0x0
    35b0:	00000000 	sll	zero,zero,0x0
    35b4:	00000000 	sll	zero,zero,0x0
    35b8:	00000000 	sll	zero,zero,0x0
    35bc:	00000000 	sll	zero,zero,0x0
    35c0:	00000000 	sll	zero,zero,0x0
    35c4:	00000000 	sll	zero,zero,0x0
    35c8:	00000000 	sll	zero,zero,0x0
    35cc:	00000000 	sll	zero,zero,0x0
    35d0:	00000000 	sll	zero,zero,0x0
    35d4:	00000000 	sll	zero,zero,0x0
    35d8:	00000000 	sll	zero,zero,0x0
    35dc:	00000000 	sll	zero,zero,0x0
    35e0:	00000000 	sll	zero,zero,0x0
    35e4:	00000000 	sll	zero,zero,0x0
    35e8:	00000000 	sll	zero,zero,0x0
    35ec:	00000000 	sll	zero,zero,0x0
    35f0:	00000000 	sll	zero,zero,0x0
    35f4:	00000000 	sll	zero,zero,0x0
    35f8:	00000000 	sll	zero,zero,0x0
    35fc:	00000000 	sll	zero,zero,0x0
    3600:	00000000 	sll	zero,zero,0x0
    3604:	00000000 	sll	zero,zero,0x0
    3608:	00000000 	sll	zero,zero,0x0
    360c:	00000000 	sll	zero,zero,0x0
    3610:	00000000 	sll	zero,zero,0x0
    3614:	00000000 	sll	zero,zero,0x0
    3618:	00000000 	sll	zero,zero,0x0
    361c:	00000000 	sll	zero,zero,0x0
    3620:	00000000 	sll	zero,zero,0x0
    3624:	00000000 	sll	zero,zero,0x0
    3628:	00000000 	sll	zero,zero,0x0
    362c:	00000000 	sll	zero,zero,0x0
    3630:	00000000 	sll	zero,zero,0x0
    3634:	00000000 	sll	zero,zero,0x0
    3638:	00000000 	sll	zero,zero,0x0
    363c:	00000000 	sll	zero,zero,0x0
    3640:	00000000 	sll	zero,zero,0x0
    3644:	00000000 	sll	zero,zero,0x0
    3648:	00000000 	sll	zero,zero,0x0
    364c:	00000000 	sll	zero,zero,0x0
    3650:	00000000 	sll	zero,zero,0x0
    3654:	00000000 	sll	zero,zero,0x0
    3658:	00000000 	sll	zero,zero,0x0
    365c:	00000000 	sll	zero,zero,0x0
    3660:	00000000 	sll	zero,zero,0x0
    3664:	00000000 	sll	zero,zero,0x0
    3668:	00000000 	sll	zero,zero,0x0
    366c:	00000000 	sll	zero,zero,0x0
    3670:	00000000 	sll	zero,zero,0x0
    3674:	00000000 	sll	zero,zero,0x0
    3678:	00000000 	sll	zero,zero,0x0
    367c:	00000000 	sll	zero,zero,0x0
    3680:	00000000 	sll	zero,zero,0x0
    3684:	00000000 	sll	zero,zero,0x0
    3688:	00000000 	sll	zero,zero,0x0
    368c:	00000000 	sll	zero,zero,0x0
    3690:	00000000 	sll	zero,zero,0x0
    3694:	00000000 	sll	zero,zero,0x0
    3698:	00000000 	sll	zero,zero,0x0
    369c:	00000000 	sll	zero,zero,0x0
    36a0:	00000000 	sll	zero,zero,0x0
    36a4:	00000000 	sll	zero,zero,0x0
    36a8:	00000000 	sll	zero,zero,0x0
    36ac:	00000000 	sll	zero,zero,0x0
    36b0:	00000000 	sll	zero,zero,0x0
    36b4:	00000000 	sll	zero,zero,0x0
    36b8:	00000000 	sll	zero,zero,0x0
    36bc:	00000000 	sll	zero,zero,0x0
    36c0:	00000000 	sll	zero,zero,0x0
    36c4:	00000000 	sll	zero,zero,0x0
    36c8:	00000000 	sll	zero,zero,0x0
    36cc:	00000000 	sll	zero,zero,0x0
    36d0:	00000000 	sll	zero,zero,0x0
    36d4:	00000000 	sll	zero,zero,0x0
    36d8:	00000000 	sll	zero,zero,0x0
    36dc:	00000000 	sll	zero,zero,0x0
    36e0:	00000000 	sll	zero,zero,0x0
    36e4:	00000000 	sll	zero,zero,0x0
    36e8:	00000000 	sll	zero,zero,0x0
    36ec:	00000000 	sll	zero,zero,0x0
    36f0:	00000000 	sll	zero,zero,0x0
    36f4:	00000000 	sll	zero,zero,0x0
    36f8:	00000000 	sll	zero,zero,0x0
    36fc:	00000000 	sll	zero,zero,0x0
    3700:	00000000 	sll	zero,zero,0x0
    3704:	00000000 	sll	zero,zero,0x0
    3708:	00000000 	sll	zero,zero,0x0
    370c:	00000000 	sll	zero,zero,0x0
    3710:	00000000 	sll	zero,zero,0x0
    3714:	00000000 	sll	zero,zero,0x0
    3718:	00000000 	sll	zero,zero,0x0
    371c:	00000000 	sll	zero,zero,0x0
    3720:	00000000 	sll	zero,zero,0x0
    3724:	00000000 	sll	zero,zero,0x0
    3728:	00000000 	sll	zero,zero,0x0
    372c:	00000000 	sll	zero,zero,0x0
    3730:	00000000 	sll	zero,zero,0x0
    3734:	00000000 	sll	zero,zero,0x0
    3738:	00000000 	sll	zero,zero,0x0
    373c:	00000000 	sll	zero,zero,0x0
    3740:	00000000 	sll	zero,zero,0x0
    3744:	00000000 	sll	zero,zero,0x0
    3748:	00000000 	sll	zero,zero,0x0
    374c:	00000000 	sll	zero,zero,0x0
    3750:	00000000 	sll	zero,zero,0x0
    3754:	00000000 	sll	zero,zero,0x0
    3758:	00000000 	sll	zero,zero,0x0
    375c:	00000000 	sll	zero,zero,0x0
    3760:	00000000 	sll	zero,zero,0x0
    3764:	00000000 	sll	zero,zero,0x0
    3768:	00000000 	sll	zero,zero,0x0
    376c:	00000000 	sll	zero,zero,0x0
    3770:	00000000 	sll	zero,zero,0x0
    3774:	00000000 	sll	zero,zero,0x0
    3778:	00000000 	sll	zero,zero,0x0
    377c:	00000000 	sll	zero,zero,0x0
    3780:	00000000 	sll	zero,zero,0x0
    3784:	00000000 	sll	zero,zero,0x0
    3788:	00000000 	sll	zero,zero,0x0
    378c:	00000000 	sll	zero,zero,0x0
    3790:	00000000 	sll	zero,zero,0x0
    3794:	00000000 	sll	zero,zero,0x0
    3798:	00000000 	sll	zero,zero,0x0
    379c:	00000000 	sll	zero,zero,0x0
    37a0:	00000000 	sll	zero,zero,0x0
    37a4:	00000000 	sll	zero,zero,0x0
    37a8:	00000000 	sll	zero,zero,0x0
    37ac:	00000000 	sll	zero,zero,0x0
    37b0:	00000000 	sll	zero,zero,0x0
    37b4:	00000000 	sll	zero,zero,0x0
    37b8:	00000000 	sll	zero,zero,0x0
    37bc:	00000000 	sll	zero,zero,0x0
    37c0:	00000000 	sll	zero,zero,0x0
    37c4:	00000000 	sll	zero,zero,0x0
    37c8:	00000000 	sll	zero,zero,0x0
    37cc:	00000000 	sll	zero,zero,0x0
    37d0:	00000000 	sll	zero,zero,0x0
    37d4:	00000000 	sll	zero,zero,0x0
    37d8:	00000000 	sll	zero,zero,0x0
    37dc:	00000000 	sll	zero,zero,0x0
    37e0:	00000000 	sll	zero,zero,0x0
    37e4:	00000000 	sll	zero,zero,0x0
    37e8:	00000000 	sll	zero,zero,0x0
    37ec:	00000000 	sll	zero,zero,0x0
    37f0:	00000000 	sll	zero,zero,0x0
    37f4:	00000000 	sll	zero,zero,0x0
    37f8:	00000000 	sll	zero,zero,0x0
    37fc:	00000000 	sll	zero,zero,0x0
    3800:	00000000 	sll	zero,zero,0x0
    3804:	00000000 	sll	zero,zero,0x0
    3808:	00000000 	sll	zero,zero,0x0
    380c:	00000000 	sll	zero,zero,0x0
    3810:	00000000 	sll	zero,zero,0x0
    3814:	00000000 	sll	zero,zero,0x0
    3818:	00000000 	sll	zero,zero,0x0
    381c:	00000000 	sll	zero,zero,0x0
    3820:	00000000 	sll	zero,zero,0x0
    3824:	00000000 	sll	zero,zero,0x0
    3828:	00000000 	sll	zero,zero,0x0
    382c:	00000000 	sll	zero,zero,0x0
    3830:	00000000 	sll	zero,zero,0x0
    3834:	00000000 	sll	zero,zero,0x0
    3838:	00000000 	sll	zero,zero,0x0
    383c:	00000000 	sll	zero,zero,0x0
    3840:	00000000 	sll	zero,zero,0x0
    3844:	00000000 	sll	zero,zero,0x0
    3848:	00000000 	sll	zero,zero,0x0
    384c:	00000000 	sll	zero,zero,0x0
    3850:	00000000 	sll	zero,zero,0x0
    3854:	00000000 	sll	zero,zero,0x0
    3858:	00000000 	sll	zero,zero,0x0
    385c:	00000000 	sll	zero,zero,0x0
    3860:	00000000 	sll	zero,zero,0x0
    3864:	00000000 	sll	zero,zero,0x0
    3868:	00000000 	sll	zero,zero,0x0
    386c:	00000000 	sll	zero,zero,0x0
    3870:	00000000 	sll	zero,zero,0x0
    3874:	00000000 	sll	zero,zero,0x0
    3878:	00000000 	sll	zero,zero,0x0
    387c:	00000000 	sll	zero,zero,0x0
    3880:	00000000 	sll	zero,zero,0x0
    3884:	00000000 	sll	zero,zero,0x0
    3888:	00000000 	sll	zero,zero,0x0
    388c:	00000000 	sll	zero,zero,0x0
    3890:	00000000 	sll	zero,zero,0x0
    3894:	00000000 	sll	zero,zero,0x0
    3898:	00000000 	sll	zero,zero,0x0
    389c:	00000000 	sll	zero,zero,0x0
    38a0:	00000000 	sll	zero,zero,0x0
    38a4:	00000000 	sll	zero,zero,0x0
    38a8:	00000000 	sll	zero,zero,0x0
    38ac:	00000000 	sll	zero,zero,0x0
    38b0:	00000000 	sll	zero,zero,0x0
    38b4:	00000000 	sll	zero,zero,0x0
    38b8:	00000000 	sll	zero,zero,0x0
    38bc:	00000000 	sll	zero,zero,0x0
    38c0:	00000000 	sll	zero,zero,0x0
    38c4:	00000000 	sll	zero,zero,0x0
    38c8:	00000000 	sll	zero,zero,0x0
    38cc:	00000000 	sll	zero,zero,0x0
    38d0:	00000000 	sll	zero,zero,0x0
    38d4:	00000000 	sll	zero,zero,0x0
    38d8:	00000000 	sll	zero,zero,0x0
    38dc:	00000000 	sll	zero,zero,0x0
    38e0:	00000000 	sll	zero,zero,0x0
    38e4:	00000000 	sll	zero,zero,0x0
    38e8:	00000000 	sll	zero,zero,0x0
    38ec:	00000000 	sll	zero,zero,0x0
    38f0:	00000000 	sll	zero,zero,0x0
    38f4:	00000000 	sll	zero,zero,0x0
    38f8:	00000000 	sll	zero,zero,0x0
    38fc:	00000000 	sll	zero,zero,0x0
    3900:	00000000 	sll	zero,zero,0x0
    3904:	00000000 	sll	zero,zero,0x0
    3908:	00000000 	sll	zero,zero,0x0
    390c:	00000000 	sll	zero,zero,0x0
    3910:	00000000 	sll	zero,zero,0x0
    3914:	00000000 	sll	zero,zero,0x0
    3918:	00000000 	sll	zero,zero,0x0
    391c:	00000000 	sll	zero,zero,0x0
    3920:	00000000 	sll	zero,zero,0x0
    3924:	00000000 	sll	zero,zero,0x0
    3928:	00000000 	sll	zero,zero,0x0
    392c:	00000000 	sll	zero,zero,0x0
    3930:	00000000 	sll	zero,zero,0x0
    3934:	00000000 	sll	zero,zero,0x0
    3938:	00000000 	sll	zero,zero,0x0
    393c:	00000000 	sll	zero,zero,0x0
    3940:	00000000 	sll	zero,zero,0x0
    3944:	00000000 	sll	zero,zero,0x0
    3948:	00000000 	sll	zero,zero,0x0
    394c:	00000000 	sll	zero,zero,0x0
    3950:	00000000 	sll	zero,zero,0x0
    3954:	00000000 	sll	zero,zero,0x0
    3958:	00000000 	sll	zero,zero,0x0
    395c:	00000000 	sll	zero,zero,0x0
    3960:	00000000 	sll	zero,zero,0x0
    3964:	00000000 	sll	zero,zero,0x0
    3968:	00000000 	sll	zero,zero,0x0
    396c:	00000000 	sll	zero,zero,0x0
    3970:	00000000 	sll	zero,zero,0x0
    3974:	00000000 	sll	zero,zero,0x0
    3978:	00000000 	sll	zero,zero,0x0
    397c:	00000000 	sll	zero,zero,0x0
    3980:	00000000 	sll	zero,zero,0x0
    3984:	00000000 	sll	zero,zero,0x0
    3988:	00000000 	sll	zero,zero,0x0
    398c:	00000000 	sll	zero,zero,0x0
    3990:	00000000 	sll	zero,zero,0x0
    3994:	00000000 	sll	zero,zero,0x0
    3998:	00000000 	sll	zero,zero,0x0
    399c:	00000000 	sll	zero,zero,0x0
    39a0:	00000000 	sll	zero,zero,0x0
    39a4:	00000000 	sll	zero,zero,0x0
    39a8:	00000000 	sll	zero,zero,0x0
    39ac:	00000000 	sll	zero,zero,0x0
    39b0:	00000000 	sll	zero,zero,0x0
    39b4:	00000000 	sll	zero,zero,0x0
    39b8:	00000000 	sll	zero,zero,0x0
    39bc:	00000000 	sll	zero,zero,0x0
    39c0:	00000000 	sll	zero,zero,0x0
    39c4:	00000000 	sll	zero,zero,0x0
    39c8:	00000000 	sll	zero,zero,0x0
    39cc:	00000000 	sll	zero,zero,0x0
    39d0:	00000000 	sll	zero,zero,0x0
    39d4:	00000000 	sll	zero,zero,0x0
    39d8:	00000000 	sll	zero,zero,0x0
    39dc:	00000000 	sll	zero,zero,0x0
    39e0:	00000000 	sll	zero,zero,0x0
    39e4:	00000000 	sll	zero,zero,0x0
    39e8:	00000000 	sll	zero,zero,0x0
    39ec:	00000000 	sll	zero,zero,0x0
    39f0:	00000000 	sll	zero,zero,0x0
    39f4:	00000000 	sll	zero,zero,0x0
    39f8:	00000000 	sll	zero,zero,0x0
    39fc:	00000000 	sll	zero,zero,0x0
    3a00:	00000000 	sll	zero,zero,0x0
    3a04:	00000000 	sll	zero,zero,0x0
    3a08:	00000000 	sll	zero,zero,0x0
    3a0c:	00000000 	sll	zero,zero,0x0
    3a10:	00000000 	sll	zero,zero,0x0
    3a14:	00000000 	sll	zero,zero,0x0
    3a18:	00000000 	sll	zero,zero,0x0
    3a1c:	00000000 	sll	zero,zero,0x0
    3a20:	00000000 	sll	zero,zero,0x0
    3a24:	00000000 	sll	zero,zero,0x0
    3a28:	00000000 	sll	zero,zero,0x0
    3a2c:	00000000 	sll	zero,zero,0x0
    3a30:	00000000 	sll	zero,zero,0x0
    3a34:	00000000 	sll	zero,zero,0x0
    3a38:	00000000 	sll	zero,zero,0x0
    3a3c:	00000000 	sll	zero,zero,0x0
    3a40:	00000000 	sll	zero,zero,0x0
    3a44:	00000000 	sll	zero,zero,0x0
    3a48:	00000000 	sll	zero,zero,0x0
    3a4c:	00000000 	sll	zero,zero,0x0
    3a50:	00000000 	sll	zero,zero,0x0
    3a54:	00000000 	sll	zero,zero,0x0
    3a58:	00000000 	sll	zero,zero,0x0
    3a5c:	00000000 	sll	zero,zero,0x0
    3a60:	00000000 	sll	zero,zero,0x0
    3a64:	00000000 	sll	zero,zero,0x0
    3a68:	00000000 	sll	zero,zero,0x0
    3a6c:	00000000 	sll	zero,zero,0x0
    3a70:	00000000 	sll	zero,zero,0x0
    3a74:	00000000 	sll	zero,zero,0x0
    3a78:	00000000 	sll	zero,zero,0x0
    3a7c:	00000000 	sll	zero,zero,0x0
    3a80:	00000000 	sll	zero,zero,0x0
    3a84:	00000000 	sll	zero,zero,0x0
    3a88:	00000000 	sll	zero,zero,0x0
    3a8c:	00000000 	sll	zero,zero,0x0
    3a90:	00000000 	sll	zero,zero,0x0
    3a94:	00000000 	sll	zero,zero,0x0
    3a98:	00000000 	sll	zero,zero,0x0
    3a9c:	00000000 	sll	zero,zero,0x0
    3aa0:	00000000 	sll	zero,zero,0x0
    3aa4:	00000000 	sll	zero,zero,0x0
    3aa8:	00000000 	sll	zero,zero,0x0
    3aac:	00000000 	sll	zero,zero,0x0
    3ab0:	00000000 	sll	zero,zero,0x0
    3ab4:	00000000 	sll	zero,zero,0x0
    3ab8:	00000000 	sll	zero,zero,0x0
    3abc:	00000000 	sll	zero,zero,0x0
    3ac0:	00000000 	sll	zero,zero,0x0
    3ac4:	00000000 	sll	zero,zero,0x0
    3ac8:	00000000 	sll	zero,zero,0x0
    3acc:	00000000 	sll	zero,zero,0x0
    3ad0:	00000000 	sll	zero,zero,0x0
    3ad4:	00000000 	sll	zero,zero,0x0
    3ad8:	00000000 	sll	zero,zero,0x0
    3adc:	00000000 	sll	zero,zero,0x0
    3ae0:	00000000 	sll	zero,zero,0x0
    3ae4:	00000000 	sll	zero,zero,0x0
    3ae8:	00000000 	sll	zero,zero,0x0
    3aec:	00000000 	sll	zero,zero,0x0
    3af0:	00000000 	sll	zero,zero,0x0
    3af4:	00000000 	sll	zero,zero,0x0
    3af8:	00000000 	sll	zero,zero,0x0
    3afc:	00000000 	sll	zero,zero,0x0
    3b00:	00000000 	sll	zero,zero,0x0
    3b04:	00000000 	sll	zero,zero,0x0
    3b08:	00000000 	sll	zero,zero,0x0
    3b0c:	00000000 	sll	zero,zero,0x0
    3b10:	00000000 	sll	zero,zero,0x0
    3b14:	00000000 	sll	zero,zero,0x0
    3b18:	00000000 	sll	zero,zero,0x0
    3b1c:	00000000 	sll	zero,zero,0x0
    3b20:	00000000 	sll	zero,zero,0x0
    3b24:	00000000 	sll	zero,zero,0x0
    3b28:	00000000 	sll	zero,zero,0x0
    3b2c:	00000000 	sll	zero,zero,0x0
    3b30:	00000000 	sll	zero,zero,0x0
    3b34:	00000000 	sll	zero,zero,0x0
    3b38:	00000000 	sll	zero,zero,0x0
    3b3c:	00000000 	sll	zero,zero,0x0
    3b40:	00000000 	sll	zero,zero,0x0
    3b44:	00000000 	sll	zero,zero,0x0
    3b48:	00000000 	sll	zero,zero,0x0
    3b4c:	00000000 	sll	zero,zero,0x0
    3b50:	00000000 	sll	zero,zero,0x0
    3b54:	00000000 	sll	zero,zero,0x0
    3b58:	00000000 	sll	zero,zero,0x0
    3b5c:	00000000 	sll	zero,zero,0x0
    3b60:	00000000 	sll	zero,zero,0x0
    3b64:	00000000 	sll	zero,zero,0x0
    3b68:	00000000 	sll	zero,zero,0x0
    3b6c:	00000000 	sll	zero,zero,0x0
    3b70:	00000000 	sll	zero,zero,0x0
    3b74:	00000000 	sll	zero,zero,0x0
    3b78:	00000000 	sll	zero,zero,0x0
    3b7c:	00000000 	sll	zero,zero,0x0
    3b80:	00000000 	sll	zero,zero,0x0
    3b84:	00000000 	sll	zero,zero,0x0
    3b88:	00000000 	sll	zero,zero,0x0
    3b8c:	00000000 	sll	zero,zero,0x0
    3b90:	00000000 	sll	zero,zero,0x0
    3b94:	00000000 	sll	zero,zero,0x0
    3b98:	00000000 	sll	zero,zero,0x0
    3b9c:	00000000 	sll	zero,zero,0x0
    3ba0:	00000000 	sll	zero,zero,0x0
    3ba4:	00000000 	sll	zero,zero,0x0
    3ba8:	00000000 	sll	zero,zero,0x0
    3bac:	00000000 	sll	zero,zero,0x0
    3bb0:	00000000 	sll	zero,zero,0x0
    3bb4:	00000000 	sll	zero,zero,0x0
    3bb8:	00000000 	sll	zero,zero,0x0
    3bbc:	00000000 	sll	zero,zero,0x0
    3bc0:	00000000 	sll	zero,zero,0x0
    3bc4:	00000000 	sll	zero,zero,0x0
    3bc8:	00000000 	sll	zero,zero,0x0
    3bcc:	00000000 	sll	zero,zero,0x0
    3bd0:	00000000 	sll	zero,zero,0x0
    3bd4:	00000000 	sll	zero,zero,0x0
    3bd8:	00000000 	sll	zero,zero,0x0
    3bdc:	00000000 	sll	zero,zero,0x0
    3be0:	00000000 	sll	zero,zero,0x0
    3be4:	00000000 	sll	zero,zero,0x0
    3be8:	00000000 	sll	zero,zero,0x0
    3bec:	00000000 	sll	zero,zero,0x0
    3bf0:	00000000 	sll	zero,zero,0x0
    3bf4:	00000000 	sll	zero,zero,0x0
    3bf8:	00000000 	sll	zero,zero,0x0
    3bfc:	00000000 	sll	zero,zero,0x0
    3c00:	00000000 	sll	zero,zero,0x0
    3c04:	00000000 	sll	zero,zero,0x0
    3c08:	00000000 	sll	zero,zero,0x0
    3c0c:	00000000 	sll	zero,zero,0x0
    3c10:	00000000 	sll	zero,zero,0x0
    3c14:	00000000 	sll	zero,zero,0x0
    3c18:	00000000 	sll	zero,zero,0x0
    3c1c:	00000000 	sll	zero,zero,0x0
    3c20:	00000000 	sll	zero,zero,0x0
    3c24:	00000000 	sll	zero,zero,0x0
    3c28:	00000000 	sll	zero,zero,0x0
    3c2c:	00000000 	sll	zero,zero,0x0
    3c30:	00000000 	sll	zero,zero,0x0
    3c34:	00000000 	sll	zero,zero,0x0
    3c38:	00000000 	sll	zero,zero,0x0
    3c3c:	00000000 	sll	zero,zero,0x0
    3c40:	00000000 	sll	zero,zero,0x0
    3c44:	00000000 	sll	zero,zero,0x0
    3c48:	00000000 	sll	zero,zero,0x0
    3c4c:	00000000 	sll	zero,zero,0x0
    3c50:	00000000 	sll	zero,zero,0x0
    3c54:	00000000 	sll	zero,zero,0x0
    3c58:	00000000 	sll	zero,zero,0x0
    3c5c:	00000000 	sll	zero,zero,0x0
    3c60:	00000000 	sll	zero,zero,0x0
    3c64:	00000000 	sll	zero,zero,0x0
    3c68:	00000000 	sll	zero,zero,0x0
    3c6c:	00000000 	sll	zero,zero,0x0
    3c70:	00000000 	sll	zero,zero,0x0
    3c74:	00000000 	sll	zero,zero,0x0
    3c78:	00000000 	sll	zero,zero,0x0
    3c7c:	00000000 	sll	zero,zero,0x0
    3c80:	00000000 	sll	zero,zero,0x0
    3c84:	00000000 	sll	zero,zero,0x0
    3c88:	00000000 	sll	zero,zero,0x0
    3c8c:	00000000 	sll	zero,zero,0x0
    3c90:	00000000 	sll	zero,zero,0x0
    3c94:	00000000 	sll	zero,zero,0x0
    3c98:	00000000 	sll	zero,zero,0x0
    3c9c:	00000000 	sll	zero,zero,0x0
    3ca0:	00000000 	sll	zero,zero,0x0
    3ca4:	00000000 	sll	zero,zero,0x0
    3ca8:	00000000 	sll	zero,zero,0x0
    3cac:	00000000 	sll	zero,zero,0x0
    3cb0:	00000000 	sll	zero,zero,0x0
    3cb4:	00000000 	sll	zero,zero,0x0
    3cb8:	00000000 	sll	zero,zero,0x0
    3cbc:	00000000 	sll	zero,zero,0x0
    3cc0:	00000000 	sll	zero,zero,0x0
    3cc4:	00000000 	sll	zero,zero,0x0
    3cc8:	00000000 	sll	zero,zero,0x0
    3ccc:	00000000 	sll	zero,zero,0x0
    3cd0:	00000000 	sll	zero,zero,0x0
    3cd4:	00000000 	sll	zero,zero,0x0
    3cd8:	00000000 	sll	zero,zero,0x0
    3cdc:	00000000 	sll	zero,zero,0x0
    3ce0:	00000000 	sll	zero,zero,0x0
    3ce4:	00000000 	sll	zero,zero,0x0
    3ce8:	00000000 	sll	zero,zero,0x0
    3cec:	00000000 	sll	zero,zero,0x0
    3cf0:	00000000 	sll	zero,zero,0x0
    3cf4:	00000000 	sll	zero,zero,0x0
    3cf8:	00000000 	sll	zero,zero,0x0
    3cfc:	00000000 	sll	zero,zero,0x0
    3d00:	00000000 	sll	zero,zero,0x0
    3d04:	00000000 	sll	zero,zero,0x0
    3d08:	00000000 	sll	zero,zero,0x0
    3d0c:	00000000 	sll	zero,zero,0x0
    3d10:	00000000 	sll	zero,zero,0x0
    3d14:	00000000 	sll	zero,zero,0x0
    3d18:	00000000 	sll	zero,zero,0x0
    3d1c:	00000000 	sll	zero,zero,0x0
    3d20:	00000000 	sll	zero,zero,0x0
    3d24:	00000000 	sll	zero,zero,0x0
    3d28:	00000000 	sll	zero,zero,0x0
    3d2c:	00000000 	sll	zero,zero,0x0
    3d30:	00000000 	sll	zero,zero,0x0
    3d34:	00000000 	sll	zero,zero,0x0
    3d38:	00000000 	sll	zero,zero,0x0
    3d3c:	00000000 	sll	zero,zero,0x0
    3d40:	00000000 	sll	zero,zero,0x0
    3d44:	00000000 	sll	zero,zero,0x0
    3d48:	00000000 	sll	zero,zero,0x0
    3d4c:	00000000 	sll	zero,zero,0x0
    3d50:	00000000 	sll	zero,zero,0x0
    3d54:	00000000 	sll	zero,zero,0x0
    3d58:	00000000 	sll	zero,zero,0x0
    3d5c:	00000000 	sll	zero,zero,0x0
    3d60:	00000000 	sll	zero,zero,0x0
    3d64:	00000000 	sll	zero,zero,0x0
    3d68:	00000000 	sll	zero,zero,0x0
    3d6c:	00000000 	sll	zero,zero,0x0
    3d70:	00000000 	sll	zero,zero,0x0
    3d74:	00000000 	sll	zero,zero,0x0
    3d78:	00000000 	sll	zero,zero,0x0
    3d7c:	00000000 	sll	zero,zero,0x0
    3d80:	00000000 	sll	zero,zero,0x0
    3d84:	00000000 	sll	zero,zero,0x0
    3d88:	00000000 	sll	zero,zero,0x0
    3d8c:	00000000 	sll	zero,zero,0x0
    3d90:	00000000 	sll	zero,zero,0x0
    3d94:	00000000 	sll	zero,zero,0x0
    3d98:	00000000 	sll	zero,zero,0x0
    3d9c:	00000000 	sll	zero,zero,0x0
    3da0:	00000000 	sll	zero,zero,0x0
    3da4:	00000000 	sll	zero,zero,0x0
    3da8:	00000000 	sll	zero,zero,0x0
    3dac:	00000000 	sll	zero,zero,0x0
    3db0:	00000000 	sll	zero,zero,0x0
    3db4:	00000000 	sll	zero,zero,0x0
    3db8:	00000000 	sll	zero,zero,0x0
    3dbc:	00000000 	sll	zero,zero,0x0
    3dc0:	00000000 	sll	zero,zero,0x0
    3dc4:	00000000 	sll	zero,zero,0x0
    3dc8:	00000000 	sll	zero,zero,0x0
    3dcc:	00000000 	sll	zero,zero,0x0
    3dd0:	00000000 	sll	zero,zero,0x0
    3dd4:	00000000 	sll	zero,zero,0x0
    3dd8:	00000000 	sll	zero,zero,0x0
    3ddc:	00000000 	sll	zero,zero,0x0
    3de0:	00000000 	sll	zero,zero,0x0
    3de4:	00000000 	sll	zero,zero,0x0
    3de8:	00000000 	sll	zero,zero,0x0
    3dec:	00000000 	sll	zero,zero,0x0
    3df0:	00000000 	sll	zero,zero,0x0
    3df4:	00000000 	sll	zero,zero,0x0
    3df8:	00000000 	sll	zero,zero,0x0
    3dfc:	00000000 	sll	zero,zero,0x0
    3e00:	00000000 	sll	zero,zero,0x0
    3e04:	00000000 	sll	zero,zero,0x0
    3e08:	00000000 	sll	zero,zero,0x0
    3e0c:	00000000 	sll	zero,zero,0x0
    3e10:	00000000 	sll	zero,zero,0x0
    3e14:	00000000 	sll	zero,zero,0x0
    3e18:	00000000 	sll	zero,zero,0x0
    3e1c:	00000000 	sll	zero,zero,0x0
    3e20:	00000000 	sll	zero,zero,0x0
    3e24:	00000000 	sll	zero,zero,0x0
    3e28:	00000000 	sll	zero,zero,0x0
    3e2c:	00000000 	sll	zero,zero,0x0
    3e30:	00000000 	sll	zero,zero,0x0
    3e34:	00000000 	sll	zero,zero,0x0
    3e38:	00000000 	sll	zero,zero,0x0
    3e3c:	00000000 	sll	zero,zero,0x0
    3e40:	00000000 	sll	zero,zero,0x0
    3e44:	00000000 	sll	zero,zero,0x0
    3e48:	00000000 	sll	zero,zero,0x0
    3e4c:	00000000 	sll	zero,zero,0x0
    3e50:	00000000 	sll	zero,zero,0x0
    3e54:	00000000 	sll	zero,zero,0x0
    3e58:	00000000 	sll	zero,zero,0x0
    3e5c:	00000000 	sll	zero,zero,0x0
    3e60:	00000000 	sll	zero,zero,0x0
    3e64:	00000000 	sll	zero,zero,0x0
    3e68:	00000000 	sll	zero,zero,0x0
    3e6c:	00000000 	sll	zero,zero,0x0
    3e70:	00000000 	sll	zero,zero,0x0
    3e74:	00000000 	sll	zero,zero,0x0
    3e78:	00000000 	sll	zero,zero,0x0
    3e7c:	00000000 	sll	zero,zero,0x0
    3e80:	00000000 	sll	zero,zero,0x0
    3e84:	00000000 	sll	zero,zero,0x0
    3e88:	00000000 	sll	zero,zero,0x0
    3e8c:	00000000 	sll	zero,zero,0x0
    3e90:	00000000 	sll	zero,zero,0x0
    3e94:	00000000 	sll	zero,zero,0x0
    3e98:	00000000 	sll	zero,zero,0x0
    3e9c:	00000000 	sll	zero,zero,0x0
    3ea0:	00000000 	sll	zero,zero,0x0
    3ea4:	00000000 	sll	zero,zero,0x0
    3ea8:	00000000 	sll	zero,zero,0x0
    3eac:	00000000 	sll	zero,zero,0x0
    3eb0:	00000000 	sll	zero,zero,0x0
    3eb4:	00000000 	sll	zero,zero,0x0
    3eb8:	00000000 	sll	zero,zero,0x0
    3ebc:	00000000 	sll	zero,zero,0x0
    3ec0:	00000000 	sll	zero,zero,0x0
    3ec4:	00000000 	sll	zero,zero,0x0
    3ec8:	00000000 	sll	zero,zero,0x0
    3ecc:	00000000 	sll	zero,zero,0x0
    3ed0:	00000000 	sll	zero,zero,0x0
    3ed4:	00000000 	sll	zero,zero,0x0
    3ed8:	00000000 	sll	zero,zero,0x0
    3edc:	00000000 	sll	zero,zero,0x0
    3ee0:	00000000 	sll	zero,zero,0x0
    3ee4:	00000000 	sll	zero,zero,0x0
    3ee8:	00000000 	sll	zero,zero,0x0
    3eec:	00000000 	sll	zero,zero,0x0
    3ef0:	00000000 	sll	zero,zero,0x0
    3ef4:	00000000 	sll	zero,zero,0x0
    3ef8:	00000000 	sll	zero,zero,0x0
    3efc:	00000000 	sll	zero,zero,0x0
    3f00:	00000000 	sll	zero,zero,0x0
    3f04:	00000000 	sll	zero,zero,0x0
    3f08:	00000000 	sll	zero,zero,0x0
    3f0c:	00000000 	sll	zero,zero,0x0
    3f10:	00000000 	sll	zero,zero,0x0
    3f14:	00000000 	sll	zero,zero,0x0
    3f18:	00000000 	sll	zero,zero,0x0
    3f1c:	00000000 	sll	zero,zero,0x0
    3f20:	00000000 	sll	zero,zero,0x0
    3f24:	00000000 	sll	zero,zero,0x0
    3f28:	00000000 	sll	zero,zero,0x0
    3f2c:	00000000 	sll	zero,zero,0x0
    3f30:	00000000 	sll	zero,zero,0x0
    3f34:	00000000 	sll	zero,zero,0x0
    3f38:	00000000 	sll	zero,zero,0x0
    3f3c:	00000000 	sll	zero,zero,0x0
    3f40:	00000000 	sll	zero,zero,0x0
    3f44:	00000000 	sll	zero,zero,0x0
    3f48:	00000000 	sll	zero,zero,0x0
    3f4c:	00000000 	sll	zero,zero,0x0
    3f50:	00000000 	sll	zero,zero,0x0
    3f54:	00000000 	sll	zero,zero,0x0
    3f58:	00000000 	sll	zero,zero,0x0
    3f5c:	00000000 	sll	zero,zero,0x0
    3f60:	00000000 	sll	zero,zero,0x0
    3f64:	00000000 	sll	zero,zero,0x0
    3f68:	00000000 	sll	zero,zero,0x0
    3f6c:	00000000 	sll	zero,zero,0x0
    3f70:	00000000 	sll	zero,zero,0x0
    3f74:	00000000 	sll	zero,zero,0x0
    3f78:	00000000 	sll	zero,zero,0x0
    3f7c:	00000000 	sll	zero,zero,0x0
    3f80:	00000000 	sll	zero,zero,0x0
    3f84:	00000000 	sll	zero,zero,0x0
    3f88:	00000000 	sll	zero,zero,0x0
    3f8c:	00000000 	sll	zero,zero,0x0
    3f90:	00000000 	sll	zero,zero,0x0
    3f94:	00000000 	sll	zero,zero,0x0
    3f98:	00000000 	sll	zero,zero,0x0
    3f9c:	00000000 	sll	zero,zero,0x0
    3fa0:	00000000 	sll	zero,zero,0x0
    3fa4:	00000000 	sll	zero,zero,0x0
    3fa8:	00000000 	sll	zero,zero,0x0
    3fac:	00000000 	sll	zero,zero,0x0
    3fb0:	00000000 	sll	zero,zero,0x0
    3fb4:	00000000 	sll	zero,zero,0x0
    3fb8:	00000000 	sll	zero,zero,0x0
    3fbc:	00000000 	sll	zero,zero,0x0
    3fc0:	00000000 	sll	zero,zero,0x0
    3fc4:	00000000 	sll	zero,zero,0x0
    3fc8:	00000000 	sll	zero,zero,0x0
    3fcc:	00000000 	sll	zero,zero,0x0
    3fd0:	00000000 	sll	zero,zero,0x0
    3fd4:	00000000 	sll	zero,zero,0x0
    3fd8:	00000000 	sll	zero,zero,0x0
    3fdc:	00000000 	sll	zero,zero,0x0
    3fe0:	00000000 	sll	zero,zero,0x0
    3fe4:	00000000 	sll	zero,zero,0x0
    3fe8:	00000000 	sll	zero,zero,0x0
    3fec:	00000000 	sll	zero,zero,0x0
    3ff0:	00000000 	sll	zero,zero,0x0
    3ff4:	00000000 	sll	zero,zero,0x0
    3ff8:	00000000 	sll	zero,zero,0x0
    3ffc:	00000000 	sll	zero,zero,0x0
    4000:	00000000 	sll	zero,zero,0x0
    4004:	00000000 	sll	zero,zero,0x0
    4008:	00000000 	sll	zero,zero,0x0
    400c:	00000000 	sll	zero,zero,0x0
    4010:	00000000 	sll	zero,zero,0x0
    4014:	00000000 	sll	zero,zero,0x0
    4018:	00000000 	sll	zero,zero,0x0
    401c:	00000000 	sll	zero,zero,0x0
    4020:	00000000 	sll	zero,zero,0x0
    4024:	00000000 	sll	zero,zero,0x0
    4028:	00000000 	sll	zero,zero,0x0
    402c:	00000000 	sll	zero,zero,0x0
    4030:	00000000 	sll	zero,zero,0x0
    4034:	00000000 	sll	zero,zero,0x0
    4038:	00000000 	sll	zero,zero,0x0
    403c:	00000000 	sll	zero,zero,0x0
    4040:	00000000 	sll	zero,zero,0x0
    4044:	00000000 	sll	zero,zero,0x0
    4048:	00000000 	sll	zero,zero,0x0
    404c:	00000000 	sll	zero,zero,0x0
    4050:	00000000 	sll	zero,zero,0x0
    4054:	00000000 	sll	zero,zero,0x0
    4058:	00000000 	sll	zero,zero,0x0
    405c:	00000000 	sll	zero,zero,0x0
    4060:	00000000 	sll	zero,zero,0x0
    4064:	00000000 	sll	zero,zero,0x0
    4068:	00000000 	sll	zero,zero,0x0
    406c:	00000000 	sll	zero,zero,0x0
    4070:	00000000 	sll	zero,zero,0x0
    4074:	00000000 	sll	zero,zero,0x0
    4078:	00000000 	sll	zero,zero,0x0
    407c:	00000000 	sll	zero,zero,0x0
    4080:	00000000 	sll	zero,zero,0x0
    4084:	00000000 	sll	zero,zero,0x0
    4088:	00000000 	sll	zero,zero,0x0
    408c:	00000000 	sll	zero,zero,0x0
    4090:	00000000 	sll	zero,zero,0x0
    4094:	00000000 	sll	zero,zero,0x0
    4098:	00000000 	sll	zero,zero,0x0
    409c:	00000000 	sll	zero,zero,0x0
    40a0:	00000000 	sll	zero,zero,0x0
    40a4:	00000000 	sll	zero,zero,0x0
    40a8:	00000000 	sll	zero,zero,0x0
    40ac:	00000000 	sll	zero,zero,0x0
    40b0:	00000000 	sll	zero,zero,0x0
    40b4:	00000000 	sll	zero,zero,0x0
    40b8:	00000000 	sll	zero,zero,0x0
    40bc:	00000000 	sll	zero,zero,0x0
    40c0:	00000000 	sll	zero,zero,0x0
    40c4:	00000000 	sll	zero,zero,0x0
    40c8:	00000000 	sll	zero,zero,0x0
    40cc:	00000000 	sll	zero,zero,0x0
    40d0:	00000000 	sll	zero,zero,0x0
    40d4:	00000000 	sll	zero,zero,0x0
    40d8:	00000000 	sll	zero,zero,0x0
    40dc:	00000000 	sll	zero,zero,0x0
    40e0:	00000000 	sll	zero,zero,0x0
    40e4:	00000000 	sll	zero,zero,0x0
    40e8:	00000000 	sll	zero,zero,0x0
    40ec:	00000000 	sll	zero,zero,0x0
    40f0:	00000000 	sll	zero,zero,0x0
    40f4:	00000000 	sll	zero,zero,0x0
    40f8:	00000000 	sll	zero,zero,0x0
    40fc:	00000000 	sll	zero,zero,0x0
    4100:	00000000 	sll	zero,zero,0x0
    4104:	00000000 	sll	zero,zero,0x0
    4108:	00000000 	sll	zero,zero,0x0
    410c:	00000000 	sll	zero,zero,0x0
    4110:	00000000 	sll	zero,zero,0x0
    4114:	00000000 	sll	zero,zero,0x0
    4118:	00000000 	sll	zero,zero,0x0
    411c:	00000000 	sll	zero,zero,0x0
    4120:	00000000 	sll	zero,zero,0x0
    4124:	00000000 	sll	zero,zero,0x0
    4128:	00000000 	sll	zero,zero,0x0
    412c:	00000000 	sll	zero,zero,0x0
    4130:	00000000 	sll	zero,zero,0x0
    4134:	00000000 	sll	zero,zero,0x0
    4138:	00000000 	sll	zero,zero,0x0
    413c:	00000000 	sll	zero,zero,0x0
    4140:	00000000 	sll	zero,zero,0x0
    4144:	00000000 	sll	zero,zero,0x0
    4148:	00000000 	sll	zero,zero,0x0
    414c:	00000000 	sll	zero,zero,0x0
    4150:	00000000 	sll	zero,zero,0x0
    4154:	00000000 	sll	zero,zero,0x0
    4158:	00000000 	sll	zero,zero,0x0
    415c:	00000000 	sll	zero,zero,0x0
    4160:	00000000 	sll	zero,zero,0x0
    4164:	00000000 	sll	zero,zero,0x0
    4168:	00000000 	sll	zero,zero,0x0
    416c:	00000000 	sll	zero,zero,0x0
    4170:	00000000 	sll	zero,zero,0x0
    4174:	00000000 	sll	zero,zero,0x0
    4178:	00000000 	sll	zero,zero,0x0
    417c:	00000000 	sll	zero,zero,0x0
    4180:	00000000 	sll	zero,zero,0x0
    4184:	00000000 	sll	zero,zero,0x0
    4188:	00000000 	sll	zero,zero,0x0
    418c:	00000000 	sll	zero,zero,0x0
    4190:	00000000 	sll	zero,zero,0x0
    4194:	00000000 	sll	zero,zero,0x0
    4198:	00000000 	sll	zero,zero,0x0
    419c:	00000000 	sll	zero,zero,0x0
    41a0:	00000000 	sll	zero,zero,0x0
    41a4:	00000000 	sll	zero,zero,0x0
    41a8:	00000000 	sll	zero,zero,0x0
    41ac:	00000000 	sll	zero,zero,0x0
    41b0:	00000000 	sll	zero,zero,0x0
    41b4:	00000000 	sll	zero,zero,0x0
    41b8:	00000000 	sll	zero,zero,0x0
    41bc:	00000000 	sll	zero,zero,0x0
    41c0:	00000000 	sll	zero,zero,0x0
    41c4:	00000000 	sll	zero,zero,0x0
    41c8:	00000000 	sll	zero,zero,0x0
    41cc:	00000000 	sll	zero,zero,0x0
    41d0:	00000000 	sll	zero,zero,0x0
    41d4:	00000000 	sll	zero,zero,0x0
    41d8:	00000000 	sll	zero,zero,0x0
    41dc:	00000000 	sll	zero,zero,0x0
    41e0:	00000000 	sll	zero,zero,0x0
    41e4:	00000000 	sll	zero,zero,0x0
    41e8:	00000000 	sll	zero,zero,0x0
    41ec:	00000000 	sll	zero,zero,0x0
    41f0:	00000000 	sll	zero,zero,0x0
    41f4:	00000000 	sll	zero,zero,0x0
    41f8:	00000000 	sll	zero,zero,0x0
    41fc:	00000000 	sll	zero,zero,0x0
    4200:	00000000 	sll	zero,zero,0x0
    4204:	00000000 	sll	zero,zero,0x0
    4208:	00000000 	sll	zero,zero,0x0
    420c:	00000000 	sll	zero,zero,0x0
    4210:	00000000 	sll	zero,zero,0x0
    4214:	00000000 	sll	zero,zero,0x0
    4218:	00000000 	sll	zero,zero,0x0
    421c:	00000000 	sll	zero,zero,0x0
    4220:	00000000 	sll	zero,zero,0x0
    4224:	00000000 	sll	zero,zero,0x0
    4228:	00000000 	sll	zero,zero,0x0
    422c:	00000000 	sll	zero,zero,0x0
    4230:	00000000 	sll	zero,zero,0x0
    4234:	00000000 	sll	zero,zero,0x0
    4238:	00000000 	sll	zero,zero,0x0
    423c:	00000000 	sll	zero,zero,0x0
    4240:	00000000 	sll	zero,zero,0x0
    4244:	00000000 	sll	zero,zero,0x0
    4248:	00000000 	sll	zero,zero,0x0
    424c:	00000000 	sll	zero,zero,0x0
    4250:	00000000 	sll	zero,zero,0x0
    4254:	00000000 	sll	zero,zero,0x0
    4258:	00000000 	sll	zero,zero,0x0
    425c:	00000000 	sll	zero,zero,0x0
    4260:	00000000 	sll	zero,zero,0x0
    4264:	00000000 	sll	zero,zero,0x0
    4268:	00000000 	sll	zero,zero,0x0
    426c:	00000000 	sll	zero,zero,0x0
    4270:	00000000 	sll	zero,zero,0x0
    4274:	00000000 	sll	zero,zero,0x0
    4278:	00000000 	sll	zero,zero,0x0
    427c:	00000000 	sll	zero,zero,0x0
    4280:	00000000 	sll	zero,zero,0x0
    4284:	00000000 	sll	zero,zero,0x0
    4288:	00000000 	sll	zero,zero,0x0
    428c:	00000000 	sll	zero,zero,0x0
    4290:	00000000 	sll	zero,zero,0x0
    4294:	00000000 	sll	zero,zero,0x0
    4298:	00000000 	sll	zero,zero,0x0
    429c:	00000000 	sll	zero,zero,0x0
    42a0:	00000000 	sll	zero,zero,0x0
    42a4:	00000000 	sll	zero,zero,0x0
    42a8:	00000000 	sll	zero,zero,0x0
    42ac:	00000000 	sll	zero,zero,0x0
    42b0:	00000000 	sll	zero,zero,0x0
    42b4:	00000000 	sll	zero,zero,0x0
    42b8:	00000000 	sll	zero,zero,0x0
    42bc:	00000000 	sll	zero,zero,0x0
    42c0:	00000000 	sll	zero,zero,0x0
    42c4:	00000000 	sll	zero,zero,0x0
    42c8:	00000000 	sll	zero,zero,0x0
    42cc:	00000000 	sll	zero,zero,0x0
    42d0:	00000000 	sll	zero,zero,0x0
    42d4:	00000000 	sll	zero,zero,0x0
    42d8:	00000000 	sll	zero,zero,0x0
    42dc:	00000000 	sll	zero,zero,0x0
    42e0:	00000000 	sll	zero,zero,0x0
    42e4:	00000000 	sll	zero,zero,0x0
    42e8:	00000000 	sll	zero,zero,0x0
    42ec:	00000000 	sll	zero,zero,0x0
    42f0:	00000000 	sll	zero,zero,0x0
    42f4:	00000000 	sll	zero,zero,0x0
    42f8:	00000000 	sll	zero,zero,0x0
    42fc:	00000000 	sll	zero,zero,0x0
    4300:	00000000 	sll	zero,zero,0x0
    4304:	00000000 	sll	zero,zero,0x0
    4308:	00000000 	sll	zero,zero,0x0
    430c:	00000000 	sll	zero,zero,0x0
    4310:	00000000 	sll	zero,zero,0x0
    4314:	00000000 	sll	zero,zero,0x0
    4318:	00000000 	sll	zero,zero,0x0
    431c:	00000000 	sll	zero,zero,0x0
    4320:	00000000 	sll	zero,zero,0x0
    4324:	00000000 	sll	zero,zero,0x0
    4328:	00000000 	sll	zero,zero,0x0
    432c:	00000000 	sll	zero,zero,0x0
    4330:	00000000 	sll	zero,zero,0x0
    4334:	00000000 	sll	zero,zero,0x0
    4338:	00000000 	sll	zero,zero,0x0
    433c:	00000000 	sll	zero,zero,0x0
    4340:	00000000 	sll	zero,zero,0x0
    4344:	00000000 	sll	zero,zero,0x0
    4348:	00000000 	sll	zero,zero,0x0
    434c:	00000000 	sll	zero,zero,0x0
    4350:	00000000 	sll	zero,zero,0x0
    4354:	00000000 	sll	zero,zero,0x0
    4358:	00000000 	sll	zero,zero,0x0
    435c:	00000000 	sll	zero,zero,0x0
    4360:	00000000 	sll	zero,zero,0x0
    4364:	00000000 	sll	zero,zero,0x0
    4368:	00000000 	sll	zero,zero,0x0
    436c:	00000000 	sll	zero,zero,0x0
    4370:	00000000 	sll	zero,zero,0x0
    4374:	00000000 	sll	zero,zero,0x0
    4378:	00000000 	sll	zero,zero,0x0
    437c:	00000000 	sll	zero,zero,0x0
    4380:	00000000 	sll	zero,zero,0x0
    4384:	00000000 	sll	zero,zero,0x0
    4388:	00000000 	sll	zero,zero,0x0
    438c:	00000000 	sll	zero,zero,0x0
    4390:	00000000 	sll	zero,zero,0x0
    4394:	00000000 	sll	zero,zero,0x0
    4398:	00000000 	sll	zero,zero,0x0
    439c:	00000000 	sll	zero,zero,0x0
    43a0:	00000000 	sll	zero,zero,0x0
    43a4:	00000000 	sll	zero,zero,0x0
    43a8:	00000000 	sll	zero,zero,0x0
    43ac:	00000000 	sll	zero,zero,0x0
    43b0:	00000000 	sll	zero,zero,0x0
    43b4:	00000000 	sll	zero,zero,0x0
    43b8:	00000000 	sll	zero,zero,0x0
    43bc:	00000000 	sll	zero,zero,0x0
    43c0:	00000000 	sll	zero,zero,0x0
    43c4:	00000000 	sll	zero,zero,0x0
    43c8:	00000000 	sll	zero,zero,0x0
    43cc:	00000000 	sll	zero,zero,0x0
    43d0:	00000000 	sll	zero,zero,0x0
    43d4:	00000000 	sll	zero,zero,0x0
    43d8:	00000000 	sll	zero,zero,0x0
    43dc:	00000000 	sll	zero,zero,0x0
    43e0:	00000000 	sll	zero,zero,0x0
    43e4:	00000000 	sll	zero,zero,0x0
    43e8:	00000000 	sll	zero,zero,0x0
    43ec:	00000000 	sll	zero,zero,0x0
    43f0:	00000000 	sll	zero,zero,0x0
    43f4:	00000000 	sll	zero,zero,0x0
    43f8:	00000000 	sll	zero,zero,0x0
    43fc:	00000000 	sll	zero,zero,0x0
    4400:	00000000 	sll	zero,zero,0x0
    4404:	00000000 	sll	zero,zero,0x0
    4408:	00000000 	sll	zero,zero,0x0
    440c:	00000000 	sll	zero,zero,0x0
    4410:	00000000 	sll	zero,zero,0x0
    4414:	00000000 	sll	zero,zero,0x0
    4418:	00000000 	sll	zero,zero,0x0
    441c:	00000000 	sll	zero,zero,0x0
    4420:	00000000 	sll	zero,zero,0x0
    4424:	00000000 	sll	zero,zero,0x0
    4428:	00000000 	sll	zero,zero,0x0
    442c:	00000000 	sll	zero,zero,0x0
    4430:	00000000 	sll	zero,zero,0x0
    4434:	00000000 	sll	zero,zero,0x0
    4438:	00000000 	sll	zero,zero,0x0
    443c:	00000000 	sll	zero,zero,0x0
    4440:	00000000 	sll	zero,zero,0x0
    4444:	00000000 	sll	zero,zero,0x0
    4448:	00000000 	sll	zero,zero,0x0
    444c:	00000000 	sll	zero,zero,0x0
    4450:	00000000 	sll	zero,zero,0x0
    4454:	00000000 	sll	zero,zero,0x0
    4458:	00000000 	sll	zero,zero,0x0
    445c:	00000000 	sll	zero,zero,0x0
    4460:	00000000 	sll	zero,zero,0x0
    4464:	00000000 	sll	zero,zero,0x0
    4468:	00000000 	sll	zero,zero,0x0
    446c:	00000000 	sll	zero,zero,0x0
    4470:	00000000 	sll	zero,zero,0x0
    4474:	00000000 	sll	zero,zero,0x0
    4478:	00000000 	sll	zero,zero,0x0
    447c:	00000000 	sll	zero,zero,0x0
    4480:	00000000 	sll	zero,zero,0x0
    4484:	00000000 	sll	zero,zero,0x0
    4488:	00000000 	sll	zero,zero,0x0
    448c:	00000000 	sll	zero,zero,0x0
    4490:	00000000 	sll	zero,zero,0x0
    4494:	00000000 	sll	zero,zero,0x0
    4498:	00000000 	sll	zero,zero,0x0
    449c:	00000000 	sll	zero,zero,0x0
    44a0:	00000000 	sll	zero,zero,0x0
    44a4:	00000000 	sll	zero,zero,0x0
    44a8:	00000000 	sll	zero,zero,0x0
    44ac:	00000000 	sll	zero,zero,0x0
    44b0:	00000000 	sll	zero,zero,0x0
    44b4:	00000000 	sll	zero,zero,0x0
    44b8:	00000000 	sll	zero,zero,0x0
    44bc:	00000000 	sll	zero,zero,0x0
    44c0:	00000000 	sll	zero,zero,0x0
    44c4:	00000000 	sll	zero,zero,0x0
    44c8:	00000000 	sll	zero,zero,0x0
    44cc:	00000000 	sll	zero,zero,0x0
    44d0:	00000000 	sll	zero,zero,0x0
    44d4:	00000000 	sll	zero,zero,0x0
    44d8:	00000000 	sll	zero,zero,0x0
    44dc:	00000000 	sll	zero,zero,0x0
    44e0:	00000000 	sll	zero,zero,0x0
    44e4:	00000000 	sll	zero,zero,0x0
    44e8:	00000000 	sll	zero,zero,0x0
    44ec:	00000000 	sll	zero,zero,0x0
    44f0:	00000000 	sll	zero,zero,0x0
    44f4:	00000000 	sll	zero,zero,0x0
    44f8:	00000000 	sll	zero,zero,0x0
    44fc:	00000000 	sll	zero,zero,0x0
    4500:	00000000 	sll	zero,zero,0x0
    4504:	00000000 	sll	zero,zero,0x0
    4508:	00000000 	sll	zero,zero,0x0
    450c:	00000000 	sll	zero,zero,0x0
    4510:	00000000 	sll	zero,zero,0x0
    4514:	00000000 	sll	zero,zero,0x0
    4518:	00000000 	sll	zero,zero,0x0
    451c:	00000000 	sll	zero,zero,0x0
    4520:	00000000 	sll	zero,zero,0x0
    4524:	00000000 	sll	zero,zero,0x0
    4528:	00000000 	sll	zero,zero,0x0
    452c:	00000000 	sll	zero,zero,0x0
    4530:	00000000 	sll	zero,zero,0x0
    4534:	00000000 	sll	zero,zero,0x0
    4538:	00000000 	sll	zero,zero,0x0
    453c:	00000000 	sll	zero,zero,0x0
    4540:	00000000 	sll	zero,zero,0x0
    4544:	00000000 	sll	zero,zero,0x0
    4548:	00000000 	sll	zero,zero,0x0
    454c:	00000000 	sll	zero,zero,0x0
    4550:	00000000 	sll	zero,zero,0x0
    4554:	00000000 	sll	zero,zero,0x0
    4558:	00000000 	sll	zero,zero,0x0
    455c:	00000000 	sll	zero,zero,0x0
    4560:	00000000 	sll	zero,zero,0x0
    4564:	00000000 	sll	zero,zero,0x0
    4568:	00000000 	sll	zero,zero,0x0
    456c:	00000000 	sll	zero,zero,0x0
    4570:	00000000 	sll	zero,zero,0x0
    4574:	00000000 	sll	zero,zero,0x0
    4578:	00000000 	sll	zero,zero,0x0
    457c:	00000000 	sll	zero,zero,0x0
    4580:	00000000 	sll	zero,zero,0x0
    4584:	00000000 	sll	zero,zero,0x0
    4588:	00000000 	sll	zero,zero,0x0
    458c:	00000000 	sll	zero,zero,0x0
    4590:	00000000 	sll	zero,zero,0x0
    4594:	00000000 	sll	zero,zero,0x0
    4598:	00000000 	sll	zero,zero,0x0
    459c:	00000000 	sll	zero,zero,0x0
    45a0:	00000000 	sll	zero,zero,0x0
    45a4:	00000000 	sll	zero,zero,0x0
    45a8:	00000000 	sll	zero,zero,0x0
    45ac:	00000000 	sll	zero,zero,0x0
    45b0:	00000000 	sll	zero,zero,0x0
    45b4:	00000000 	sll	zero,zero,0x0
    45b8:	00000000 	sll	zero,zero,0x0
    45bc:	00000000 	sll	zero,zero,0x0
    45c0:	00000000 	sll	zero,zero,0x0
    45c4:	00000000 	sll	zero,zero,0x0
    45c8:	00000000 	sll	zero,zero,0x0
    45cc:	00000000 	sll	zero,zero,0x0
    45d0:	00000000 	sll	zero,zero,0x0
    45d4:	00000000 	sll	zero,zero,0x0
    45d8:	00000000 	sll	zero,zero,0x0
    45dc:	00000000 	sll	zero,zero,0x0
    45e0:	00000000 	sll	zero,zero,0x0
    45e4:	00000000 	sll	zero,zero,0x0
    45e8:	00000000 	sll	zero,zero,0x0
    45ec:	00000000 	sll	zero,zero,0x0
    45f0:	00000000 	sll	zero,zero,0x0
    45f4:	00000000 	sll	zero,zero,0x0
    45f8:	00000000 	sll	zero,zero,0x0
    45fc:	00000000 	sll	zero,zero,0x0
    4600:	00000000 	sll	zero,zero,0x0
    4604:	00000000 	sll	zero,zero,0x0
    4608:	00000000 	sll	zero,zero,0x0
    460c:	00000000 	sll	zero,zero,0x0
    4610:	00000000 	sll	zero,zero,0x0
    4614:	00000000 	sll	zero,zero,0x0
    4618:	00000000 	sll	zero,zero,0x0
    461c:	00000000 	sll	zero,zero,0x0
    4620:	00000000 	sll	zero,zero,0x0
    4624:	00000000 	sll	zero,zero,0x0
    4628:	00000000 	sll	zero,zero,0x0
    462c:	00000000 	sll	zero,zero,0x0
    4630:	00000000 	sll	zero,zero,0x0
    4634:	00000000 	sll	zero,zero,0x0
    4638:	00000000 	sll	zero,zero,0x0
    463c:	00000000 	sll	zero,zero,0x0
    4640:	00000000 	sll	zero,zero,0x0
    4644:	00000000 	sll	zero,zero,0x0
    4648:	00000000 	sll	zero,zero,0x0
    464c:	00000000 	sll	zero,zero,0x0
    4650:	00000000 	sll	zero,zero,0x0
    4654:	00000000 	sll	zero,zero,0x0
    4658:	00000000 	sll	zero,zero,0x0
    465c:	00000000 	sll	zero,zero,0x0
    4660:	00000000 	sll	zero,zero,0x0
    4664:	00000000 	sll	zero,zero,0x0
    4668:	00000000 	sll	zero,zero,0x0
    466c:	00000000 	sll	zero,zero,0x0
    4670:	00000000 	sll	zero,zero,0x0
    4674:	00000000 	sll	zero,zero,0x0
    4678:	00000000 	sll	zero,zero,0x0
    467c:	00000000 	sll	zero,zero,0x0
    4680:	00000000 	sll	zero,zero,0x0
    4684:	00000000 	sll	zero,zero,0x0
    4688:	00000000 	sll	zero,zero,0x0
    468c:	00000000 	sll	zero,zero,0x0
    4690:	00000000 	sll	zero,zero,0x0
    4694:	00000000 	sll	zero,zero,0x0
    4698:	00000000 	sll	zero,zero,0x0
    469c:	00000000 	sll	zero,zero,0x0
    46a0:	00000000 	sll	zero,zero,0x0
    46a4:	00000000 	sll	zero,zero,0x0
    46a8:	00000000 	sll	zero,zero,0x0
    46ac:	00000000 	sll	zero,zero,0x0
    46b0:	00000000 	sll	zero,zero,0x0
    46b4:	00000000 	sll	zero,zero,0x0
    46b8:	00000000 	sll	zero,zero,0x0
    46bc:	00000000 	sll	zero,zero,0x0
    46c0:	00000000 	sll	zero,zero,0x0
    46c4:	00000000 	sll	zero,zero,0x0
    46c8:	00000000 	sll	zero,zero,0x0
    46cc:	00000000 	sll	zero,zero,0x0
    46d0:	00000000 	sll	zero,zero,0x0
    46d4:	00000000 	sll	zero,zero,0x0
    46d8:	00000000 	sll	zero,zero,0x0
    46dc:	00000000 	sll	zero,zero,0x0
    46e0:	00000000 	sll	zero,zero,0x0
    46e4:	00000000 	sll	zero,zero,0x0
    46e8:	00000000 	sll	zero,zero,0x0
    46ec:	00000000 	sll	zero,zero,0x0
    46f0:	00000000 	sll	zero,zero,0x0
    46f4:	00000000 	sll	zero,zero,0x0
    46f8:	00000000 	sll	zero,zero,0x0
    46fc:	00000000 	sll	zero,zero,0x0
    4700:	00000000 	sll	zero,zero,0x0
    4704:	00000000 	sll	zero,zero,0x0
    4708:	00000000 	sll	zero,zero,0x0
    470c:	00000000 	sll	zero,zero,0x0
    4710:	00000000 	sll	zero,zero,0x0
    4714:	00000000 	sll	zero,zero,0x0
    4718:	00000000 	sll	zero,zero,0x0
    471c:	00000000 	sll	zero,zero,0x0
    4720:	00000000 	sll	zero,zero,0x0
    4724:	00000000 	sll	zero,zero,0x0
    4728:	00000000 	sll	zero,zero,0x0
    472c:	00000000 	sll	zero,zero,0x0
    4730:	00000000 	sll	zero,zero,0x0
    4734:	00000000 	sll	zero,zero,0x0
    4738:	00000000 	sll	zero,zero,0x0
    473c:	00000000 	sll	zero,zero,0x0
    4740:	00000000 	sll	zero,zero,0x0
    4744:	00000000 	sll	zero,zero,0x0
    4748:	00000000 	sll	zero,zero,0x0
    474c:	00000000 	sll	zero,zero,0x0
    4750:	00000000 	sll	zero,zero,0x0
    4754:	00000000 	sll	zero,zero,0x0
    4758:	00000000 	sll	zero,zero,0x0
    475c:	00000000 	sll	zero,zero,0x0
    4760:	00000000 	sll	zero,zero,0x0
    4764:	00000000 	sll	zero,zero,0x0
    4768:	00000000 	sll	zero,zero,0x0
    476c:	00000000 	sll	zero,zero,0x0
    4770:	00000000 	sll	zero,zero,0x0
    4774:	00000000 	sll	zero,zero,0x0
    4778:	00000000 	sll	zero,zero,0x0
    477c:	00000000 	sll	zero,zero,0x0
    4780:	00000000 	sll	zero,zero,0x0
    4784:	00000000 	sll	zero,zero,0x0
    4788:	00000000 	sll	zero,zero,0x0
    478c:	00000000 	sll	zero,zero,0x0
    4790:	00000000 	sll	zero,zero,0x0
    4794:	00000000 	sll	zero,zero,0x0
    4798:	00000000 	sll	zero,zero,0x0
    479c:	00000000 	sll	zero,zero,0x0
    47a0:	00000000 	sll	zero,zero,0x0
    47a4:	00000000 	sll	zero,zero,0x0
    47a8:	00000000 	sll	zero,zero,0x0
    47ac:	00000000 	sll	zero,zero,0x0
    47b0:	00000000 	sll	zero,zero,0x0
    47b4:	00000000 	sll	zero,zero,0x0
    47b8:	00000000 	sll	zero,zero,0x0
    47bc:	00000000 	sll	zero,zero,0x0
    47c0:	00000000 	sll	zero,zero,0x0
    47c4:	00000000 	sll	zero,zero,0x0
    47c8:	00000000 	sll	zero,zero,0x0
    47cc:	00000000 	sll	zero,zero,0x0
    47d0:	00000000 	sll	zero,zero,0x0
    47d4:	00000000 	sll	zero,zero,0x0
    47d8:	00000000 	sll	zero,zero,0x0
    47dc:	00000000 	sll	zero,zero,0x0
    47e0:	00000000 	sll	zero,zero,0x0
    47e4:	00000000 	sll	zero,zero,0x0
    47e8:	00000000 	sll	zero,zero,0x0
    47ec:	00000000 	sll	zero,zero,0x0
    47f0:	00000000 	sll	zero,zero,0x0
    47f4:	00000000 	sll	zero,zero,0x0
    47f8:	00000000 	sll	zero,zero,0x0
    47fc:	00000000 	sll	zero,zero,0x0
    4800:	00000000 	sll	zero,zero,0x0
    4804:	00000000 	sll	zero,zero,0x0
    4808:	00000000 	sll	zero,zero,0x0
    480c:	00000000 	sll	zero,zero,0x0
    4810:	00000000 	sll	zero,zero,0x0
    4814:	00000000 	sll	zero,zero,0x0
    4818:	00000000 	sll	zero,zero,0x0
    481c:	00000000 	sll	zero,zero,0x0
    4820:	00000000 	sll	zero,zero,0x0
    4824:	00000000 	sll	zero,zero,0x0
    4828:	00000000 	sll	zero,zero,0x0
    482c:	00000000 	sll	zero,zero,0x0
    4830:	00000000 	sll	zero,zero,0x0
    4834:	00000000 	sll	zero,zero,0x0
    4838:	00000000 	sll	zero,zero,0x0
    483c:	00000000 	sll	zero,zero,0x0
    4840:	00000000 	sll	zero,zero,0x0
    4844:	00000000 	sll	zero,zero,0x0
    4848:	00000000 	sll	zero,zero,0x0
    484c:	00000000 	sll	zero,zero,0x0
    4850:	00000000 	sll	zero,zero,0x0
    4854:	00000000 	sll	zero,zero,0x0
    4858:	00000000 	sll	zero,zero,0x0
    485c:	00000000 	sll	zero,zero,0x0
    4860:	00000000 	sll	zero,zero,0x0
    4864:	00000000 	sll	zero,zero,0x0
    4868:	00000000 	sll	zero,zero,0x0
    486c:	00000000 	sll	zero,zero,0x0
    4870:	00000000 	sll	zero,zero,0x0
    4874:	00000000 	sll	zero,zero,0x0
    4878:	00000000 	sll	zero,zero,0x0
    487c:	00000000 	sll	zero,zero,0x0
    4880:	00000000 	sll	zero,zero,0x0
    4884:	00000000 	sll	zero,zero,0x0
    4888:	00000000 	sll	zero,zero,0x0
    488c:	00000000 	sll	zero,zero,0x0
    4890:	00000000 	sll	zero,zero,0x0
    4894:	00000000 	sll	zero,zero,0x0
    4898:	00000000 	sll	zero,zero,0x0
    489c:	00000000 	sll	zero,zero,0x0
    48a0:	00000000 	sll	zero,zero,0x0
    48a4:	00000000 	sll	zero,zero,0x0
    48a8:	00000000 	sll	zero,zero,0x0
    48ac:	00000000 	sll	zero,zero,0x0
    48b0:	00000000 	sll	zero,zero,0x0
    48b4:	00000000 	sll	zero,zero,0x0
    48b8:	00000000 	sll	zero,zero,0x0
    48bc:	00000000 	sll	zero,zero,0x0
    48c0:	00000000 	sll	zero,zero,0x0
    48c4:	00000000 	sll	zero,zero,0x0
    48c8:	00000000 	sll	zero,zero,0x0
    48cc:	00000000 	sll	zero,zero,0x0
    48d0:	00000000 	sll	zero,zero,0x0
    48d4:	00000000 	sll	zero,zero,0x0
    48d8:	00000000 	sll	zero,zero,0x0
    48dc:	00000000 	sll	zero,zero,0x0
    48e0:	00000000 	sll	zero,zero,0x0
    48e4:	00000000 	sll	zero,zero,0x0
    48e8:	00000000 	sll	zero,zero,0x0
    48ec:	00000000 	sll	zero,zero,0x0
    48f0:	00000000 	sll	zero,zero,0x0
    48f4:	00000000 	sll	zero,zero,0x0
    48f8:	00000000 	sll	zero,zero,0x0
    48fc:	00000000 	sll	zero,zero,0x0
    4900:	00000000 	sll	zero,zero,0x0
    4904:	00000000 	sll	zero,zero,0x0
    4908:	00000000 	sll	zero,zero,0x0
    490c:	00000000 	sll	zero,zero,0x0
    4910:	00000000 	sll	zero,zero,0x0
    4914:	00000000 	sll	zero,zero,0x0
    4918:	00000000 	sll	zero,zero,0x0
    491c:	00000000 	sll	zero,zero,0x0
    4920:	00000000 	sll	zero,zero,0x0
    4924:	00000000 	sll	zero,zero,0x0
    4928:	00000000 	sll	zero,zero,0x0
    492c:	00000000 	sll	zero,zero,0x0
    4930:	00000000 	sll	zero,zero,0x0
    4934:	00000000 	sll	zero,zero,0x0
    4938:	00000000 	sll	zero,zero,0x0
    493c:	00000000 	sll	zero,zero,0x0
    4940:	00000000 	sll	zero,zero,0x0
    4944:	00000000 	sll	zero,zero,0x0
    4948:	00000000 	sll	zero,zero,0x0
    494c:	00000000 	sll	zero,zero,0x0
    4950:	00000000 	sll	zero,zero,0x0
    4954:	00000000 	sll	zero,zero,0x0
    4958:	00000000 	sll	zero,zero,0x0
    495c:	00000000 	sll	zero,zero,0x0
    4960:	00000000 	sll	zero,zero,0x0
    4964:	00000000 	sll	zero,zero,0x0
    4968:	00000000 	sll	zero,zero,0x0
    496c:	00000000 	sll	zero,zero,0x0
    4970:	00000000 	sll	zero,zero,0x0
    4974:	00000000 	sll	zero,zero,0x0
    4978:	00000000 	sll	zero,zero,0x0
    497c:	00000000 	sll	zero,zero,0x0
    4980:	00000000 	sll	zero,zero,0x0
    4984:	00000000 	sll	zero,zero,0x0
    4988:	00000000 	sll	zero,zero,0x0
    498c:	00000000 	sll	zero,zero,0x0
    4990:	00000000 	sll	zero,zero,0x0
    4994:	00000000 	sll	zero,zero,0x0
    4998:	00000000 	sll	zero,zero,0x0
    499c:	00000000 	sll	zero,zero,0x0
    49a0:	00000000 	sll	zero,zero,0x0
    49a4:	00000000 	sll	zero,zero,0x0
    49a8:	00000000 	sll	zero,zero,0x0
    49ac:	00000000 	sll	zero,zero,0x0
    49b0:	00000000 	sll	zero,zero,0x0
    49b4:	00000000 	sll	zero,zero,0x0
    49b8:	00000000 	sll	zero,zero,0x0
    49bc:	00000000 	sll	zero,zero,0x0
    49c0:	00000000 	sll	zero,zero,0x0
    49c4:	00000000 	sll	zero,zero,0x0
    49c8:	00000000 	sll	zero,zero,0x0
    49cc:	00000000 	sll	zero,zero,0x0
    49d0:	00000000 	sll	zero,zero,0x0
    49d4:	00000000 	sll	zero,zero,0x0
    49d8:	00000000 	sll	zero,zero,0x0
    49dc:	00000000 	sll	zero,zero,0x0
    49e0:	00000000 	sll	zero,zero,0x0
    49e4:	00000000 	sll	zero,zero,0x0
    49e8:	00000000 	sll	zero,zero,0x0
    49ec:	00000000 	sll	zero,zero,0x0
    49f0:	00000000 	sll	zero,zero,0x0
    49f4:	00000000 	sll	zero,zero,0x0
    49f8:	00000000 	sll	zero,zero,0x0
    49fc:	00000000 	sll	zero,zero,0x0
    4a00:	00000000 	sll	zero,zero,0x0
    4a04:	00000000 	sll	zero,zero,0x0
    4a08:	00000000 	sll	zero,zero,0x0
    4a0c:	00000000 	sll	zero,zero,0x0
    4a10:	00000000 	sll	zero,zero,0x0
    4a14:	00000000 	sll	zero,zero,0x0
    4a18:	00000000 	sll	zero,zero,0x0
    4a1c:	00000000 	sll	zero,zero,0x0
    4a20:	00000000 	sll	zero,zero,0x0
    4a24:	00000000 	sll	zero,zero,0x0
    4a28:	00000000 	sll	zero,zero,0x0
    4a2c:	00000000 	sll	zero,zero,0x0
    4a30:	00000000 	sll	zero,zero,0x0
    4a34:	00000000 	sll	zero,zero,0x0
    4a38:	00000000 	sll	zero,zero,0x0
    4a3c:	00000000 	sll	zero,zero,0x0
    4a40:	00000000 	sll	zero,zero,0x0
    4a44:	00000000 	sll	zero,zero,0x0
    4a48:	00000000 	sll	zero,zero,0x0
    4a4c:	00000000 	sll	zero,zero,0x0
    4a50:	00000000 	sll	zero,zero,0x0
    4a54:	00000000 	sll	zero,zero,0x0
    4a58:	00000000 	sll	zero,zero,0x0
    4a5c:	00000000 	sll	zero,zero,0x0
    4a60:	00000000 	sll	zero,zero,0x0
    4a64:	00000000 	sll	zero,zero,0x0
    4a68:	00000000 	sll	zero,zero,0x0
    4a6c:	00000000 	sll	zero,zero,0x0
    4a70:	00000000 	sll	zero,zero,0x0
    4a74:	00000000 	sll	zero,zero,0x0
    4a78:	00000000 	sll	zero,zero,0x0
    4a7c:	00000000 	sll	zero,zero,0x0
    4a80:	00000000 	sll	zero,zero,0x0
    4a84:	00000000 	sll	zero,zero,0x0
    4a88:	00000000 	sll	zero,zero,0x0
    4a8c:	00000000 	sll	zero,zero,0x0
    4a90:	00000000 	sll	zero,zero,0x0
    4a94:	00000000 	sll	zero,zero,0x0
    4a98:	00000000 	sll	zero,zero,0x0
    4a9c:	00000000 	sll	zero,zero,0x0
    4aa0:	00000000 	sll	zero,zero,0x0
    4aa4:	00000000 	sll	zero,zero,0x0
    4aa8:	00000000 	sll	zero,zero,0x0
    4aac:	00000000 	sll	zero,zero,0x0
    4ab0:	00000000 	sll	zero,zero,0x0
    4ab4:	00000000 	sll	zero,zero,0x0
    4ab8:	00000000 	sll	zero,zero,0x0
    4abc:	00000000 	sll	zero,zero,0x0
    4ac0:	00000000 	sll	zero,zero,0x0
    4ac4:	00000000 	sll	zero,zero,0x0
    4ac8:	00000000 	sll	zero,zero,0x0
    4acc:	00000000 	sll	zero,zero,0x0
    4ad0:	00000000 	sll	zero,zero,0x0
    4ad4:	00000000 	sll	zero,zero,0x0
    4ad8:	00000000 	sll	zero,zero,0x0
    4adc:	00000000 	sll	zero,zero,0x0
    4ae0:	00000000 	sll	zero,zero,0x0
    4ae4:	00000000 	sll	zero,zero,0x0
    4ae8:	00000000 	sll	zero,zero,0x0
    4aec:	00000000 	sll	zero,zero,0x0
    4af0:	00000000 	sll	zero,zero,0x0
    4af4:	00000000 	sll	zero,zero,0x0
    4af8:	00000000 	sll	zero,zero,0x0
    4afc:	00000000 	sll	zero,zero,0x0
    4b00:	00000000 	sll	zero,zero,0x0
    4b04:	00000000 	sll	zero,zero,0x0
    4b08:	00000000 	sll	zero,zero,0x0
    4b0c:	00000000 	sll	zero,zero,0x0
    4b10:	00000000 	sll	zero,zero,0x0
    4b14:	00000000 	sll	zero,zero,0x0
    4b18:	00000000 	sll	zero,zero,0x0
    4b1c:	00000000 	sll	zero,zero,0x0
    4b20:	00000000 	sll	zero,zero,0x0
    4b24:	00000000 	sll	zero,zero,0x0
    4b28:	00000000 	sll	zero,zero,0x0
    4b2c:	00000000 	sll	zero,zero,0x0
    4b30:	00000000 	sll	zero,zero,0x0
    4b34:	00000000 	sll	zero,zero,0x0
    4b38:	00000000 	sll	zero,zero,0x0
    4b3c:	00000000 	sll	zero,zero,0x0
    4b40:	00000000 	sll	zero,zero,0x0
    4b44:	00000000 	sll	zero,zero,0x0
    4b48:	00000000 	sll	zero,zero,0x0
    4b4c:	00000000 	sll	zero,zero,0x0
    4b50:	00000000 	sll	zero,zero,0x0
    4b54:	00000000 	sll	zero,zero,0x0
    4b58:	00000000 	sll	zero,zero,0x0
    4b5c:	00000000 	sll	zero,zero,0x0
    4b60:	00000000 	sll	zero,zero,0x0
    4b64:	00000000 	sll	zero,zero,0x0
    4b68:	00000000 	sll	zero,zero,0x0
    4b6c:	00000000 	sll	zero,zero,0x0
    4b70:	00000000 	sll	zero,zero,0x0
    4b74:	00000000 	sll	zero,zero,0x0
    4b78:	00000000 	sll	zero,zero,0x0
    4b7c:	00000000 	sll	zero,zero,0x0
    4b80:	00000000 	sll	zero,zero,0x0
    4b84:	00000000 	sll	zero,zero,0x0
    4b88:	00000000 	sll	zero,zero,0x0
    4b8c:	00000000 	sll	zero,zero,0x0
    4b90:	00000000 	sll	zero,zero,0x0
    4b94:	00000000 	sll	zero,zero,0x0
    4b98:	00000000 	sll	zero,zero,0x0
    4b9c:	00000000 	sll	zero,zero,0x0
    4ba0:	00000000 	sll	zero,zero,0x0
    4ba4:	00000000 	sll	zero,zero,0x0
    4ba8:	00000000 	sll	zero,zero,0x0
    4bac:	00000000 	sll	zero,zero,0x0
    4bb0:	00000000 	sll	zero,zero,0x0
    4bb4:	00000000 	sll	zero,zero,0x0
    4bb8:	00000000 	sll	zero,zero,0x0
    4bbc:	00000000 	sll	zero,zero,0x0
    4bc0:	00000000 	sll	zero,zero,0x0
    4bc4:	00000000 	sll	zero,zero,0x0
    4bc8:	00000000 	sll	zero,zero,0x0
    4bcc:	00000000 	sll	zero,zero,0x0
    4bd0:	00000000 	sll	zero,zero,0x0
    4bd4:	00000000 	sll	zero,zero,0x0
    4bd8:	00000000 	sll	zero,zero,0x0
    4bdc:	00000000 	sll	zero,zero,0x0
    4be0:	00000000 	sll	zero,zero,0x0
    4be4:	00000000 	sll	zero,zero,0x0
    4be8:	00000000 	sll	zero,zero,0x0
    4bec:	00000000 	sll	zero,zero,0x0
    4bf0:	00000000 	sll	zero,zero,0x0
    4bf4:	00000000 	sll	zero,zero,0x0
    4bf8:	00000000 	sll	zero,zero,0x0
    4bfc:	00000000 	sll	zero,zero,0x0
    4c00:	00000000 	sll	zero,zero,0x0
    4c04:	00000000 	sll	zero,zero,0x0
    4c08:	00000000 	sll	zero,zero,0x0
    4c0c:	00000000 	sll	zero,zero,0x0
    4c10:	00000000 	sll	zero,zero,0x0
    4c14:	00000000 	sll	zero,zero,0x0
    4c18:	00000000 	sll	zero,zero,0x0
    4c1c:	00000000 	sll	zero,zero,0x0
    4c20:	00000000 	sll	zero,zero,0x0
    4c24:	00000000 	sll	zero,zero,0x0
    4c28:	00000000 	sll	zero,zero,0x0
    4c2c:	00000000 	sll	zero,zero,0x0
    4c30:	00000000 	sll	zero,zero,0x0
    4c34:	00000000 	sll	zero,zero,0x0
    4c38:	00000000 	sll	zero,zero,0x0
    4c3c:	00000000 	sll	zero,zero,0x0
    4c40:	00000000 	sll	zero,zero,0x0
    4c44:	00000000 	sll	zero,zero,0x0
    4c48:	00000000 	sll	zero,zero,0x0
    4c4c:	00000000 	sll	zero,zero,0x0
    4c50:	00000000 	sll	zero,zero,0x0
    4c54:	00000000 	sll	zero,zero,0x0
    4c58:	00000000 	sll	zero,zero,0x0
    4c5c:	00000000 	sll	zero,zero,0x0
    4c60:	00000000 	sll	zero,zero,0x0
    4c64:	00000000 	sll	zero,zero,0x0
    4c68:	00000000 	sll	zero,zero,0x0
    4c6c:	00000000 	sll	zero,zero,0x0
    4c70:	00000000 	sll	zero,zero,0x0
    4c74:	00000000 	sll	zero,zero,0x0
    4c78:	00000000 	sll	zero,zero,0x0
    4c7c:	00000000 	sll	zero,zero,0x0
    4c80:	00000000 	sll	zero,zero,0x0
    4c84:	00000000 	sll	zero,zero,0x0
    4c88:	00000000 	sll	zero,zero,0x0
    4c8c:	00000000 	sll	zero,zero,0x0
    4c90:	00000000 	sll	zero,zero,0x0
    4c94:	00000000 	sll	zero,zero,0x0
    4c98:	00000000 	sll	zero,zero,0x0
    4c9c:	00000000 	sll	zero,zero,0x0
    4ca0:	00000000 	sll	zero,zero,0x0
    4ca4:	00000000 	sll	zero,zero,0x0
    4ca8:	00000000 	sll	zero,zero,0x0
    4cac:	00000000 	sll	zero,zero,0x0
    4cb0:	00000000 	sll	zero,zero,0x0
    4cb4:	00000000 	sll	zero,zero,0x0
    4cb8:	00000000 	sll	zero,zero,0x0
    4cbc:	00000000 	sll	zero,zero,0x0
    4cc0:	00000000 	sll	zero,zero,0x0
    4cc4:	00000000 	sll	zero,zero,0x0
    4cc8:	00000000 	sll	zero,zero,0x0
    4ccc:	00000000 	sll	zero,zero,0x0
    4cd0:	00000000 	sll	zero,zero,0x0
    4cd4:	00000000 	sll	zero,zero,0x0
    4cd8:	00000000 	sll	zero,zero,0x0
    4cdc:	00000000 	sll	zero,zero,0x0
    4ce0:	00000000 	sll	zero,zero,0x0
    4ce4:	00000000 	sll	zero,zero,0x0
    4ce8:	00000000 	sll	zero,zero,0x0
    4cec:	00000000 	sll	zero,zero,0x0
    4cf0:	00000000 	sll	zero,zero,0x0
    4cf4:	00000000 	sll	zero,zero,0x0
    4cf8:	00000000 	sll	zero,zero,0x0
    4cfc:	00000000 	sll	zero,zero,0x0
    4d00:	00000000 	sll	zero,zero,0x0
    4d04:	00000000 	sll	zero,zero,0x0
    4d08:	00000000 	sll	zero,zero,0x0
    4d0c:	00000000 	sll	zero,zero,0x0
    4d10:	00000000 	sll	zero,zero,0x0
    4d14:	00000000 	sll	zero,zero,0x0
    4d18:	00000000 	sll	zero,zero,0x0
    4d1c:	00000000 	sll	zero,zero,0x0
    4d20:	00000000 	sll	zero,zero,0x0
    4d24:	00000000 	sll	zero,zero,0x0
    4d28:	00000000 	sll	zero,zero,0x0
    4d2c:	00000000 	sll	zero,zero,0x0
    4d30:	00000000 	sll	zero,zero,0x0
    4d34:	00000000 	sll	zero,zero,0x0
    4d38:	00000000 	sll	zero,zero,0x0
    4d3c:	00000000 	sll	zero,zero,0x0
    4d40:	00000000 	sll	zero,zero,0x0
    4d44:	00000000 	sll	zero,zero,0x0
    4d48:	00000000 	sll	zero,zero,0x0
    4d4c:	00000000 	sll	zero,zero,0x0
    4d50:	00000000 	sll	zero,zero,0x0
    4d54:	00000000 	sll	zero,zero,0x0
    4d58:	00000000 	sll	zero,zero,0x0
    4d5c:	00000000 	sll	zero,zero,0x0
    4d60:	00000000 	sll	zero,zero,0x0
    4d64:	00000000 	sll	zero,zero,0x0
    4d68:	00000000 	sll	zero,zero,0x0
    4d6c:	00000000 	sll	zero,zero,0x0
    4d70:	00000000 	sll	zero,zero,0x0
    4d74:	00000000 	sll	zero,zero,0x0
    4d78:	00000000 	sll	zero,zero,0x0
    4d7c:	00000000 	sll	zero,zero,0x0
    4d80:	00000000 	sll	zero,zero,0x0
    4d84:	00000000 	sll	zero,zero,0x0
    4d88:	00000000 	sll	zero,zero,0x0
    4d8c:	00000000 	sll	zero,zero,0x0
    4d90:	00000000 	sll	zero,zero,0x0
    4d94:	00000000 	sll	zero,zero,0x0
    4d98:	00000000 	sll	zero,zero,0x0
    4d9c:	00000000 	sll	zero,zero,0x0
    4da0:	00000000 	sll	zero,zero,0x0
    4da4:	00000000 	sll	zero,zero,0x0
    4da8:	00000000 	sll	zero,zero,0x0
    4dac:	00000000 	sll	zero,zero,0x0
    4db0:	00000000 	sll	zero,zero,0x0
    4db4:	00000000 	sll	zero,zero,0x0
    4db8:	00000000 	sll	zero,zero,0x0
    4dbc:	00000000 	sll	zero,zero,0x0
    4dc0:	00000000 	sll	zero,zero,0x0
    4dc4:	00000000 	sll	zero,zero,0x0
    4dc8:	00000000 	sll	zero,zero,0x0
    4dcc:	00000000 	sll	zero,zero,0x0
    4dd0:	00000000 	sll	zero,zero,0x0
    4dd4:	00000000 	sll	zero,zero,0x0
    4dd8:	00000000 	sll	zero,zero,0x0
    4ddc:	00000000 	sll	zero,zero,0x0
    4de0:	00000000 	sll	zero,zero,0x0
    4de4:	00000000 	sll	zero,zero,0x0
    4de8:	00000000 	sll	zero,zero,0x0
    4dec:	00000000 	sll	zero,zero,0x0
    4df0:	00000000 	sll	zero,zero,0x0
    4df4:	00000000 	sll	zero,zero,0x0
    4df8:	00000000 	sll	zero,zero,0x0
    4dfc:	00000000 	sll	zero,zero,0x0
    4e00:	00000000 	sll	zero,zero,0x0
    4e04:	00000000 	sll	zero,zero,0x0
    4e08:	00000000 	sll	zero,zero,0x0
    4e0c:	00000000 	sll	zero,zero,0x0
    4e10:	00000000 	sll	zero,zero,0x0
    4e14:	00000000 	sll	zero,zero,0x0
    4e18:	00000000 	sll	zero,zero,0x0
    4e1c:	00000000 	sll	zero,zero,0x0
    4e20:	00000000 	sll	zero,zero,0x0
    4e24:	00000000 	sll	zero,zero,0x0
    4e28:	00000000 	sll	zero,zero,0x0
    4e2c:	00000000 	sll	zero,zero,0x0
    4e30:	00000000 	sll	zero,zero,0x0
    4e34:	00000000 	sll	zero,zero,0x0
    4e38:	00000000 	sll	zero,zero,0x0
    4e3c:	00000000 	sll	zero,zero,0x0
    4e40:	00000000 	sll	zero,zero,0x0
    4e44:	00000000 	sll	zero,zero,0x0
    4e48:	00000000 	sll	zero,zero,0x0
    4e4c:	00000000 	sll	zero,zero,0x0
    4e50:	00000000 	sll	zero,zero,0x0
    4e54:	00000000 	sll	zero,zero,0x0
    4e58:	00000000 	sll	zero,zero,0x0
    4e5c:	00000000 	sll	zero,zero,0x0
    4e60:	00000000 	sll	zero,zero,0x0
    4e64:	00000000 	sll	zero,zero,0x0
    4e68:	00000000 	sll	zero,zero,0x0
    4e6c:	00000000 	sll	zero,zero,0x0
    4e70:	00000000 	sll	zero,zero,0x0
    4e74:	00000000 	sll	zero,zero,0x0
    4e78:	00000000 	sll	zero,zero,0x0
    4e7c:	00000000 	sll	zero,zero,0x0
    4e80:	00000000 	sll	zero,zero,0x0
    4e84:	00000000 	sll	zero,zero,0x0
    4e88:	00000000 	sll	zero,zero,0x0
    4e8c:	00000000 	sll	zero,zero,0x0
    4e90:	00000000 	sll	zero,zero,0x0
    4e94:	00000000 	sll	zero,zero,0x0
    4e98:	00000000 	sll	zero,zero,0x0
    4e9c:	00000000 	sll	zero,zero,0x0
    4ea0:	00000000 	sll	zero,zero,0x0
    4ea4:	00000000 	sll	zero,zero,0x0
    4ea8:	00000000 	sll	zero,zero,0x0
    4eac:	00000000 	sll	zero,zero,0x0
    4eb0:	00000000 	sll	zero,zero,0x0
    4eb4:	00000000 	sll	zero,zero,0x0
    4eb8:	00000000 	sll	zero,zero,0x0
    4ebc:	00000000 	sll	zero,zero,0x0
    4ec0:	00000000 	sll	zero,zero,0x0
    4ec4:	00000000 	sll	zero,zero,0x0
    4ec8:	00000000 	sll	zero,zero,0x0
    4ecc:	00000000 	sll	zero,zero,0x0
    4ed0:	00000000 	sll	zero,zero,0x0
    4ed4:	00000000 	sll	zero,zero,0x0
    4ed8:	00000000 	sll	zero,zero,0x0
    4edc:	00000000 	sll	zero,zero,0x0
    4ee0:	00000000 	sll	zero,zero,0x0
    4ee4:	00000000 	sll	zero,zero,0x0
    4ee8:	00000000 	sll	zero,zero,0x0
    4eec:	00000000 	sll	zero,zero,0x0
    4ef0:	00000000 	sll	zero,zero,0x0
    4ef4:	00000000 	sll	zero,zero,0x0
    4ef8:	00000000 	sll	zero,zero,0x0
    4efc:	00000000 	sll	zero,zero,0x0
    4f00:	00000000 	sll	zero,zero,0x0
    4f04:	00000000 	sll	zero,zero,0x0
    4f08:	00000000 	sll	zero,zero,0x0
    4f0c:	00000000 	sll	zero,zero,0x0
    4f10:	00000000 	sll	zero,zero,0x0
    4f14:	00000000 	sll	zero,zero,0x0
    4f18:	00000000 	sll	zero,zero,0x0
    4f1c:	00000000 	sll	zero,zero,0x0
    4f20:	00000000 	sll	zero,zero,0x0
    4f24:	00000000 	sll	zero,zero,0x0
    4f28:	00000000 	sll	zero,zero,0x0
    4f2c:	00000000 	sll	zero,zero,0x0
    4f30:	00000000 	sll	zero,zero,0x0
    4f34:	00000000 	sll	zero,zero,0x0
    4f38:	00000000 	sll	zero,zero,0x0
    4f3c:	00000000 	sll	zero,zero,0x0
    4f40:	00000000 	sll	zero,zero,0x0
    4f44:	00000000 	sll	zero,zero,0x0
    4f48:	00000000 	sll	zero,zero,0x0
    4f4c:	00000000 	sll	zero,zero,0x0
    4f50:	00000000 	sll	zero,zero,0x0
    4f54:	00000000 	sll	zero,zero,0x0
    4f58:	00000000 	sll	zero,zero,0x0
    4f5c:	00000000 	sll	zero,zero,0x0
    4f60:	00000000 	sll	zero,zero,0x0
    4f64:	00000000 	sll	zero,zero,0x0
    4f68:	00000000 	sll	zero,zero,0x0
    4f6c:	00000000 	sll	zero,zero,0x0
    4f70:	00000000 	sll	zero,zero,0x0
    4f74:	00000000 	sll	zero,zero,0x0
    4f78:	00000000 	sll	zero,zero,0x0
    4f7c:	00000000 	sll	zero,zero,0x0
    4f80:	00000000 	sll	zero,zero,0x0
    4f84:	00000000 	sll	zero,zero,0x0
    4f88:	00000000 	sll	zero,zero,0x0
    4f8c:	00000000 	sll	zero,zero,0x0
    4f90:	00000000 	sll	zero,zero,0x0
    4f94:	00000000 	sll	zero,zero,0x0
    4f98:	00000000 	sll	zero,zero,0x0
    4f9c:	00000000 	sll	zero,zero,0x0
    4fa0:	00000000 	sll	zero,zero,0x0
    4fa4:	00000000 	sll	zero,zero,0x0
    4fa8:	00000000 	sll	zero,zero,0x0
    4fac:	00000000 	sll	zero,zero,0x0
    4fb0:	00000000 	sll	zero,zero,0x0
    4fb4:	00000000 	sll	zero,zero,0x0
    4fb8:	00000000 	sll	zero,zero,0x0
    4fbc:	00000000 	sll	zero,zero,0x0
    4fc0:	00000000 	sll	zero,zero,0x0
    4fc4:	00000000 	sll	zero,zero,0x0
    4fc8:	00000000 	sll	zero,zero,0x0
    4fcc:	00000000 	sll	zero,zero,0x0
    4fd0:	00000000 	sll	zero,zero,0x0
    4fd4:	00000000 	sll	zero,zero,0x0
    4fd8:	00000000 	sll	zero,zero,0x0
    4fdc:	00000000 	sll	zero,zero,0x0
    4fe0:	00000000 	sll	zero,zero,0x0
    4fe4:	00000000 	sll	zero,zero,0x0
    4fe8:	00000000 	sll	zero,zero,0x0
    4fec:	00000000 	sll	zero,zero,0x0
    4ff0:	00000000 	sll	zero,zero,0x0
    4ff4:	00000000 	sll	zero,zero,0x0
    4ff8:	00000000 	sll	zero,zero,0x0
    4ffc:	00000000 	sll	zero,zero,0x0
    5000:	00000000 	sll	zero,zero,0x0
    5004:	00000000 	sll	zero,zero,0x0
    5008:	00000000 	sll	zero,zero,0x0
    500c:	00000000 	sll	zero,zero,0x0
    5010:	00000000 	sll	zero,zero,0x0
    5014:	00000000 	sll	zero,zero,0x0
    5018:	00000000 	sll	zero,zero,0x0
    501c:	00000000 	sll	zero,zero,0x0
    5020:	00000000 	sll	zero,zero,0x0
    5024:	00000000 	sll	zero,zero,0x0
    5028:	00000000 	sll	zero,zero,0x0
    502c:	00000000 	sll	zero,zero,0x0
    5030:	00000000 	sll	zero,zero,0x0
    5034:	00000000 	sll	zero,zero,0x0
    5038:	00000000 	sll	zero,zero,0x0
    503c:	00000000 	sll	zero,zero,0x0
    5040:	00000000 	sll	zero,zero,0x0
    5044:	00000000 	sll	zero,zero,0x0
    5048:	00000000 	sll	zero,zero,0x0
    504c:	00000000 	sll	zero,zero,0x0
    5050:	00000000 	sll	zero,zero,0x0
    5054:	00000000 	sll	zero,zero,0x0
    5058:	00000000 	sll	zero,zero,0x0
    505c:	00000000 	sll	zero,zero,0x0
    5060:	00000000 	sll	zero,zero,0x0
    5064:	00000000 	sll	zero,zero,0x0
    5068:	00000000 	sll	zero,zero,0x0
    506c:	00000000 	sll	zero,zero,0x0
    5070:	00000000 	sll	zero,zero,0x0
    5074:	00000000 	sll	zero,zero,0x0
    5078:	00000000 	sll	zero,zero,0x0
    507c:	00000000 	sll	zero,zero,0x0
    5080:	00000000 	sll	zero,zero,0x0
    5084:	00000000 	sll	zero,zero,0x0
    5088:	00000000 	sll	zero,zero,0x0
    508c:	00000000 	sll	zero,zero,0x0
    5090:	00000000 	sll	zero,zero,0x0
    5094:	00000000 	sll	zero,zero,0x0
    5098:	00000000 	sll	zero,zero,0x0
    509c:	00000000 	sll	zero,zero,0x0
    50a0:	00000000 	sll	zero,zero,0x0
    50a4:	00000000 	sll	zero,zero,0x0
    50a8:	00000000 	sll	zero,zero,0x0
    50ac:	00000000 	sll	zero,zero,0x0
    50b0:	00000000 	sll	zero,zero,0x0
    50b4:	00000000 	sll	zero,zero,0x0
    50b8:	00000000 	sll	zero,zero,0x0
    50bc:	00000000 	sll	zero,zero,0x0
    50c0:	00000000 	sll	zero,zero,0x0
    50c4:	00000000 	sll	zero,zero,0x0
    50c8:	00000000 	sll	zero,zero,0x0
    50cc:	00000000 	sll	zero,zero,0x0
    50d0:	00000000 	sll	zero,zero,0x0
    50d4:	00000000 	sll	zero,zero,0x0
    50d8:	00000000 	sll	zero,zero,0x0
    50dc:	00000000 	sll	zero,zero,0x0
    50e0:	00000000 	sll	zero,zero,0x0
    50e4:	00000000 	sll	zero,zero,0x0
    50e8:	00000000 	sll	zero,zero,0x0
    50ec:	00000000 	sll	zero,zero,0x0
    50f0:	00000000 	sll	zero,zero,0x0
    50f4:	00000000 	sll	zero,zero,0x0
    50f8:	00000000 	sll	zero,zero,0x0
    50fc:	00000000 	sll	zero,zero,0x0
    5100:	00000000 	sll	zero,zero,0x0
    5104:	00000000 	sll	zero,zero,0x0
    5108:	00000000 	sll	zero,zero,0x0
    510c:	00000000 	sll	zero,zero,0x0
    5110:	00000000 	sll	zero,zero,0x0
    5114:	00000000 	sll	zero,zero,0x0
    5118:	00000000 	sll	zero,zero,0x0
    511c:	00000000 	sll	zero,zero,0x0
    5120:	00000000 	sll	zero,zero,0x0
    5124:	00000000 	sll	zero,zero,0x0
    5128:	00000000 	sll	zero,zero,0x0
    512c:	00000000 	sll	zero,zero,0x0
    5130:	00000000 	sll	zero,zero,0x0
    5134:	00000000 	sll	zero,zero,0x0
    5138:	00000000 	sll	zero,zero,0x0
    513c:	00000000 	sll	zero,zero,0x0
    5140:	00000000 	sll	zero,zero,0x0
    5144:	00000000 	sll	zero,zero,0x0
    5148:	00000000 	sll	zero,zero,0x0
    514c:	00000000 	sll	zero,zero,0x0
    5150:	00000000 	sll	zero,zero,0x0
    5154:	00000000 	sll	zero,zero,0x0
    5158:	00000000 	sll	zero,zero,0x0
    515c:	00000000 	sll	zero,zero,0x0
    5160:	00000000 	sll	zero,zero,0x0
    5164:	00000000 	sll	zero,zero,0x0
    5168:	00000000 	sll	zero,zero,0x0
    516c:	00000000 	sll	zero,zero,0x0
    5170:	00000000 	sll	zero,zero,0x0
    5174:	00000000 	sll	zero,zero,0x0
    5178:	00000000 	sll	zero,zero,0x0
    517c:	00000000 	sll	zero,zero,0x0
    5180:	00000000 	sll	zero,zero,0x0
    5184:	00000000 	sll	zero,zero,0x0
    5188:	00000000 	sll	zero,zero,0x0
    518c:	00000000 	sll	zero,zero,0x0
    5190:	00000000 	sll	zero,zero,0x0
    5194:	00000000 	sll	zero,zero,0x0
    5198:	00000000 	sll	zero,zero,0x0
    519c:	00000000 	sll	zero,zero,0x0
    51a0:	00000000 	sll	zero,zero,0x0
    51a4:	00000000 	sll	zero,zero,0x0
    51a8:	00000000 	sll	zero,zero,0x0
    51ac:	00000000 	sll	zero,zero,0x0
    51b0:	00000000 	sll	zero,zero,0x0
    51b4:	00000000 	sll	zero,zero,0x0
    51b8:	00000000 	sll	zero,zero,0x0
    51bc:	00000000 	sll	zero,zero,0x0
    51c0:	00000000 	sll	zero,zero,0x0
    51c4:	00000000 	sll	zero,zero,0x0
    51c8:	00000000 	sll	zero,zero,0x0
    51cc:	00000000 	sll	zero,zero,0x0
    51d0:	00000000 	sll	zero,zero,0x0
    51d4:	00000000 	sll	zero,zero,0x0
    51d8:	00000000 	sll	zero,zero,0x0
    51dc:	00000000 	sll	zero,zero,0x0
    51e0:	00000000 	sll	zero,zero,0x0
    51e4:	00000000 	sll	zero,zero,0x0
    51e8:	00000000 	sll	zero,zero,0x0
    51ec:	00000000 	sll	zero,zero,0x0
    51f0:	00000000 	sll	zero,zero,0x0
    51f4:	00000000 	sll	zero,zero,0x0
    51f8:	00000000 	sll	zero,zero,0x0
    51fc:	00000000 	sll	zero,zero,0x0
    5200:	00000000 	sll	zero,zero,0x0
    5204:	00000000 	sll	zero,zero,0x0
    5208:	00000000 	sll	zero,zero,0x0
    520c:	00000000 	sll	zero,zero,0x0
    5210:	00000000 	sll	zero,zero,0x0
    5214:	00000000 	sll	zero,zero,0x0
    5218:	00000000 	sll	zero,zero,0x0
    521c:	00000000 	sll	zero,zero,0x0
    5220:	00000000 	sll	zero,zero,0x0
    5224:	00000000 	sll	zero,zero,0x0
    5228:	00000000 	sll	zero,zero,0x0
    522c:	00000000 	sll	zero,zero,0x0
    5230:	00000000 	sll	zero,zero,0x0
    5234:	00000000 	sll	zero,zero,0x0
    5238:	00000000 	sll	zero,zero,0x0
    523c:	00000000 	sll	zero,zero,0x0
    5240:	00000000 	sll	zero,zero,0x0
    5244:	00000000 	sll	zero,zero,0x0
    5248:	00000000 	sll	zero,zero,0x0
    524c:	00000000 	sll	zero,zero,0x0
    5250:	00000000 	sll	zero,zero,0x0
    5254:	00000000 	sll	zero,zero,0x0
    5258:	00000000 	sll	zero,zero,0x0
    525c:	00000000 	sll	zero,zero,0x0
    5260:	00000000 	sll	zero,zero,0x0
    5264:	00000000 	sll	zero,zero,0x0
    5268:	00000000 	sll	zero,zero,0x0
    526c:	00000000 	sll	zero,zero,0x0
    5270:	00000000 	sll	zero,zero,0x0
    5274:	00000000 	sll	zero,zero,0x0
    5278:	00000000 	sll	zero,zero,0x0
    527c:	00000000 	sll	zero,zero,0x0
    5280:	00000000 	sll	zero,zero,0x0
    5284:	00000000 	sll	zero,zero,0x0
    5288:	00000000 	sll	zero,zero,0x0
    528c:	00000000 	sll	zero,zero,0x0
    5290:	00000000 	sll	zero,zero,0x0
    5294:	00000000 	sll	zero,zero,0x0
    5298:	00000000 	sll	zero,zero,0x0
    529c:	00000000 	sll	zero,zero,0x0
    52a0:	00000000 	sll	zero,zero,0x0
    52a4:	00000000 	sll	zero,zero,0x0
    52a8:	00000000 	sll	zero,zero,0x0
    52ac:	00000000 	sll	zero,zero,0x0
    52b0:	00000000 	sll	zero,zero,0x0
    52b4:	00000000 	sll	zero,zero,0x0
    52b8:	00000000 	sll	zero,zero,0x0
    52bc:	00000000 	sll	zero,zero,0x0
    52c0:	00000000 	sll	zero,zero,0x0
    52c4:	00000000 	sll	zero,zero,0x0
    52c8:	00000000 	sll	zero,zero,0x0
    52cc:	00000000 	sll	zero,zero,0x0
    52d0:	00000000 	sll	zero,zero,0x0
    52d4:	00000000 	sll	zero,zero,0x0
    52d8:	00000000 	sll	zero,zero,0x0
    52dc:	00000000 	sll	zero,zero,0x0
    52e0:	00000000 	sll	zero,zero,0x0
    52e4:	00000000 	sll	zero,zero,0x0
    52e8:	00000000 	sll	zero,zero,0x0
    52ec:	00000000 	sll	zero,zero,0x0
    52f0:	00000000 	sll	zero,zero,0x0
    52f4:	00000000 	sll	zero,zero,0x0
    52f8:	00000000 	sll	zero,zero,0x0
    52fc:	00000000 	sll	zero,zero,0x0
    5300:	00000000 	sll	zero,zero,0x0
    5304:	00000000 	sll	zero,zero,0x0
    5308:	00000000 	sll	zero,zero,0x0
    530c:	00000000 	sll	zero,zero,0x0
    5310:	00000000 	sll	zero,zero,0x0
    5314:	00000000 	sll	zero,zero,0x0
    5318:	00000000 	sll	zero,zero,0x0
    531c:	00000000 	sll	zero,zero,0x0
    5320:	00000000 	sll	zero,zero,0x0
    5324:	00000000 	sll	zero,zero,0x0
    5328:	00000000 	sll	zero,zero,0x0
    532c:	00000000 	sll	zero,zero,0x0
    5330:	00000000 	sll	zero,zero,0x0
    5334:	00000000 	sll	zero,zero,0x0
    5338:	00000000 	sll	zero,zero,0x0
    533c:	00000000 	sll	zero,zero,0x0
    5340:	00000000 	sll	zero,zero,0x0
    5344:	00000000 	sll	zero,zero,0x0
    5348:	00000000 	sll	zero,zero,0x0
    534c:	00000000 	sll	zero,zero,0x0
    5350:	00000000 	sll	zero,zero,0x0
    5354:	00000000 	sll	zero,zero,0x0
    5358:	00000000 	sll	zero,zero,0x0
    535c:	00000000 	sll	zero,zero,0x0
    5360:	00000000 	sll	zero,zero,0x0
    5364:	00000000 	sll	zero,zero,0x0
    5368:	00000000 	sll	zero,zero,0x0
    536c:	00000000 	sll	zero,zero,0x0
    5370:	00000000 	sll	zero,zero,0x0
    5374:	00000000 	sll	zero,zero,0x0
    5378:	00000000 	sll	zero,zero,0x0
    537c:	00000000 	sll	zero,zero,0x0
    5380:	00000000 	sll	zero,zero,0x0
    5384:	00000000 	sll	zero,zero,0x0
    5388:	00000000 	sll	zero,zero,0x0
    538c:	00000000 	sll	zero,zero,0x0
    5390:	00000000 	sll	zero,zero,0x0
    5394:	00000000 	sll	zero,zero,0x0
    5398:	00000000 	sll	zero,zero,0x0
    539c:	00000000 	sll	zero,zero,0x0
    53a0:	00000000 	sll	zero,zero,0x0
    53a4:	00000000 	sll	zero,zero,0x0
    53a8:	00000000 	sll	zero,zero,0x0
    53ac:	00000000 	sll	zero,zero,0x0
    53b0:	00000000 	sll	zero,zero,0x0
    53b4:	00000000 	sll	zero,zero,0x0
    53b8:	00000000 	sll	zero,zero,0x0
    53bc:	00000000 	sll	zero,zero,0x0
    53c0:	00000000 	sll	zero,zero,0x0
    53c4:	00000000 	sll	zero,zero,0x0
    53c8:	00000000 	sll	zero,zero,0x0
    53cc:	00000000 	sll	zero,zero,0x0
    53d0:	00000000 	sll	zero,zero,0x0
    53d4:	00000000 	sll	zero,zero,0x0
    53d8:	00000000 	sll	zero,zero,0x0
    53dc:	00000000 	sll	zero,zero,0x0
    53e0:	00000000 	sll	zero,zero,0x0
    53e4:	00000000 	sll	zero,zero,0x0
    53e8:	00000000 	sll	zero,zero,0x0
    53ec:	00000000 	sll	zero,zero,0x0
    53f0:	00000000 	sll	zero,zero,0x0
    53f4:	00000000 	sll	zero,zero,0x0
    53f8:	00000000 	sll	zero,zero,0x0
    53fc:	00000000 	sll	zero,zero,0x0
    5400:	00000000 	sll	zero,zero,0x0
    5404:	00000000 	sll	zero,zero,0x0
    5408:	00000000 	sll	zero,zero,0x0
    540c:	00000000 	sll	zero,zero,0x0
    5410:	00000000 	sll	zero,zero,0x0
    5414:	00000000 	sll	zero,zero,0x0
    5418:	00000000 	sll	zero,zero,0x0
    541c:	00000000 	sll	zero,zero,0x0
    5420:	00000000 	sll	zero,zero,0x0
    5424:	00000000 	sll	zero,zero,0x0
    5428:	00000000 	sll	zero,zero,0x0
    542c:	00000000 	sll	zero,zero,0x0
    5430:	00000000 	sll	zero,zero,0x0
    5434:	00000000 	sll	zero,zero,0x0
    5438:	00000000 	sll	zero,zero,0x0
    543c:	00000000 	sll	zero,zero,0x0
    5440:	00000000 	sll	zero,zero,0x0
    5444:	00000000 	sll	zero,zero,0x0
    5448:	00000000 	sll	zero,zero,0x0
    544c:	00000000 	sll	zero,zero,0x0
    5450:	00000000 	sll	zero,zero,0x0
    5454:	00000000 	sll	zero,zero,0x0
    5458:	00000000 	sll	zero,zero,0x0
    545c:	00000000 	sll	zero,zero,0x0
    5460:	00000000 	sll	zero,zero,0x0
    5464:	00000000 	sll	zero,zero,0x0
    5468:	00000000 	sll	zero,zero,0x0
    546c:	00000000 	sll	zero,zero,0x0
    5470:	00000000 	sll	zero,zero,0x0
    5474:	00000000 	sll	zero,zero,0x0
    5478:	00000000 	sll	zero,zero,0x0
    547c:	00000000 	sll	zero,zero,0x0
    5480:	00000000 	sll	zero,zero,0x0
    5484:	00000000 	sll	zero,zero,0x0
    5488:	00000000 	sll	zero,zero,0x0
    548c:	00000000 	sll	zero,zero,0x0
    5490:	00000000 	sll	zero,zero,0x0
    5494:	00000000 	sll	zero,zero,0x0
    5498:	00000000 	sll	zero,zero,0x0
    549c:	00000000 	sll	zero,zero,0x0
    54a0:	00000000 	sll	zero,zero,0x0
    54a4:	00000000 	sll	zero,zero,0x0
    54a8:	00000000 	sll	zero,zero,0x0
    54ac:	00000000 	sll	zero,zero,0x0
    54b0:	00000000 	sll	zero,zero,0x0
    54b4:	00000000 	sll	zero,zero,0x0
    54b8:	00000000 	sll	zero,zero,0x0
    54bc:	00000000 	sll	zero,zero,0x0
    54c0:	00000000 	sll	zero,zero,0x0
    54c4:	00000000 	sll	zero,zero,0x0
    54c8:	00000000 	sll	zero,zero,0x0
    54cc:	00000000 	sll	zero,zero,0x0
    54d0:	00000000 	sll	zero,zero,0x0
    54d4:	00000000 	sll	zero,zero,0x0
    54d8:	00000000 	sll	zero,zero,0x0
    54dc:	00000000 	sll	zero,zero,0x0
    54e0:	00000000 	sll	zero,zero,0x0
    54e4:	00000000 	sll	zero,zero,0x0
    54e8:	00000000 	sll	zero,zero,0x0
    54ec:	00000000 	sll	zero,zero,0x0
    54f0:	00000000 	sll	zero,zero,0x0
    54f4:	00000000 	sll	zero,zero,0x0
    54f8:	00000000 	sll	zero,zero,0x0
    54fc:	00000000 	sll	zero,zero,0x0
    5500:	00000000 	sll	zero,zero,0x0
    5504:	00000000 	sll	zero,zero,0x0
    5508:	00000000 	sll	zero,zero,0x0
    550c:	00000000 	sll	zero,zero,0x0
    5510:	00000000 	sll	zero,zero,0x0
    5514:	00000000 	sll	zero,zero,0x0
    5518:	00000000 	sll	zero,zero,0x0
    551c:	00000000 	sll	zero,zero,0x0
    5520:	00000000 	sll	zero,zero,0x0
    5524:	00000000 	sll	zero,zero,0x0
    5528:	00000000 	sll	zero,zero,0x0
    552c:	00000000 	sll	zero,zero,0x0
    5530:	00000000 	sll	zero,zero,0x0
    5534:	00000000 	sll	zero,zero,0x0
    5538:	00000000 	sll	zero,zero,0x0
    553c:	00000000 	sll	zero,zero,0x0
    5540:	00000000 	sll	zero,zero,0x0
    5544:	00000000 	sll	zero,zero,0x0
    5548:	00000000 	sll	zero,zero,0x0
    554c:	00000000 	sll	zero,zero,0x0
    5550:	00000000 	sll	zero,zero,0x0
    5554:	00000000 	sll	zero,zero,0x0
    5558:	00000000 	sll	zero,zero,0x0
    555c:	00000000 	sll	zero,zero,0x0
    5560:	00000000 	sll	zero,zero,0x0
    5564:	00000000 	sll	zero,zero,0x0
    5568:	00000000 	sll	zero,zero,0x0
    556c:	00000000 	sll	zero,zero,0x0
    5570:	00000000 	sll	zero,zero,0x0
    5574:	00000000 	sll	zero,zero,0x0
    5578:	00000000 	sll	zero,zero,0x0
    557c:	00000000 	sll	zero,zero,0x0
    5580:	00000000 	sll	zero,zero,0x0
    5584:	00000000 	sll	zero,zero,0x0
    5588:	00000000 	sll	zero,zero,0x0
    558c:	00000000 	sll	zero,zero,0x0
    5590:	00000000 	sll	zero,zero,0x0
    5594:	00000000 	sll	zero,zero,0x0
    5598:	00000000 	sll	zero,zero,0x0
    559c:	00000000 	sll	zero,zero,0x0
    55a0:	00000000 	sll	zero,zero,0x0
    55a4:	00000000 	sll	zero,zero,0x0
    55a8:	00000000 	sll	zero,zero,0x0
    55ac:	00000000 	sll	zero,zero,0x0
    55b0:	00000000 	sll	zero,zero,0x0
    55b4:	00000000 	sll	zero,zero,0x0
    55b8:	00000000 	sll	zero,zero,0x0
    55bc:	00000000 	sll	zero,zero,0x0
    55c0:	00000000 	sll	zero,zero,0x0
    55c4:	00000000 	sll	zero,zero,0x0
    55c8:	00000000 	sll	zero,zero,0x0
    55cc:	00000000 	sll	zero,zero,0x0
    55d0:	00000000 	sll	zero,zero,0x0
    55d4:	00000000 	sll	zero,zero,0x0
    55d8:	00000000 	sll	zero,zero,0x0
    55dc:	00000000 	sll	zero,zero,0x0
    55e0:	00000000 	sll	zero,zero,0x0
    55e4:	00000000 	sll	zero,zero,0x0
    55e8:	00000000 	sll	zero,zero,0x0
    55ec:	00000000 	sll	zero,zero,0x0
    55f0:	00000000 	sll	zero,zero,0x0
    55f4:	00000000 	sll	zero,zero,0x0
    55f8:	00000000 	sll	zero,zero,0x0
    55fc:	00000000 	sll	zero,zero,0x0
    5600:	00000000 	sll	zero,zero,0x0
    5604:	00000000 	sll	zero,zero,0x0
    5608:	00000000 	sll	zero,zero,0x0
    560c:	00000000 	sll	zero,zero,0x0
    5610:	00000000 	sll	zero,zero,0x0
    5614:	00000000 	sll	zero,zero,0x0
    5618:	00000000 	sll	zero,zero,0x0
    561c:	00000000 	sll	zero,zero,0x0
    5620:	00000000 	sll	zero,zero,0x0
    5624:	00000000 	sll	zero,zero,0x0
    5628:	00000000 	sll	zero,zero,0x0
    562c:	00000000 	sll	zero,zero,0x0
    5630:	00000000 	sll	zero,zero,0x0
    5634:	00000000 	sll	zero,zero,0x0
    5638:	00000000 	sll	zero,zero,0x0
    563c:	00000000 	sll	zero,zero,0x0
    5640:	00000000 	sll	zero,zero,0x0
    5644:	00000000 	sll	zero,zero,0x0
    5648:	00000000 	sll	zero,zero,0x0
    564c:	00000000 	sll	zero,zero,0x0
    5650:	00000000 	sll	zero,zero,0x0
    5654:	00000000 	sll	zero,zero,0x0
    5658:	00000000 	sll	zero,zero,0x0
    565c:	00000000 	sll	zero,zero,0x0
    5660:	00000000 	sll	zero,zero,0x0
    5664:	00000000 	sll	zero,zero,0x0
    5668:	00000000 	sll	zero,zero,0x0
    566c:	00000000 	sll	zero,zero,0x0
    5670:	00000000 	sll	zero,zero,0x0
    5674:	00000000 	sll	zero,zero,0x0
    5678:	00000000 	sll	zero,zero,0x0
    567c:	00000000 	sll	zero,zero,0x0
    5680:	00000000 	sll	zero,zero,0x0
    5684:	00000000 	sll	zero,zero,0x0
    5688:	00000000 	sll	zero,zero,0x0
    568c:	00000000 	sll	zero,zero,0x0
    5690:	00000000 	sll	zero,zero,0x0
    5694:	00000000 	sll	zero,zero,0x0
    5698:	00000000 	sll	zero,zero,0x0
    569c:	00000000 	sll	zero,zero,0x0
    56a0:	00000000 	sll	zero,zero,0x0
    56a4:	00000000 	sll	zero,zero,0x0
    56a8:	00000000 	sll	zero,zero,0x0
    56ac:	00000000 	sll	zero,zero,0x0
    56b0:	00000000 	sll	zero,zero,0x0
    56b4:	00000000 	sll	zero,zero,0x0
    56b8:	00000000 	sll	zero,zero,0x0
    56bc:	00000000 	sll	zero,zero,0x0
    56c0:	00000000 	sll	zero,zero,0x0
    56c4:	00000000 	sll	zero,zero,0x0
    56c8:	00000000 	sll	zero,zero,0x0
    56cc:	00000000 	sll	zero,zero,0x0
    56d0:	00000000 	sll	zero,zero,0x0
    56d4:	00000000 	sll	zero,zero,0x0
    56d8:	00000000 	sll	zero,zero,0x0
    56dc:	00000000 	sll	zero,zero,0x0
    56e0:	00000000 	sll	zero,zero,0x0
    56e4:	00000000 	sll	zero,zero,0x0
    56e8:	00000000 	sll	zero,zero,0x0
    56ec:	00000000 	sll	zero,zero,0x0
    56f0:	00000000 	sll	zero,zero,0x0
    56f4:	00000000 	sll	zero,zero,0x0
    56f8:	00000000 	sll	zero,zero,0x0
    56fc:	00000000 	sll	zero,zero,0x0
    5700:	00000000 	sll	zero,zero,0x0
    5704:	00000000 	sll	zero,zero,0x0
    5708:	00000000 	sll	zero,zero,0x0
    570c:	00000000 	sll	zero,zero,0x0
    5710:	00000000 	sll	zero,zero,0x0
    5714:	00000000 	sll	zero,zero,0x0
    5718:	00000000 	sll	zero,zero,0x0
    571c:	00000000 	sll	zero,zero,0x0
    5720:	00000000 	sll	zero,zero,0x0
    5724:	00000000 	sll	zero,zero,0x0
    5728:	00000000 	sll	zero,zero,0x0
    572c:	00000000 	sll	zero,zero,0x0
    5730:	00000000 	sll	zero,zero,0x0
    5734:	00000000 	sll	zero,zero,0x0
    5738:	00000000 	sll	zero,zero,0x0
    573c:	00000000 	sll	zero,zero,0x0
    5740:	00000000 	sll	zero,zero,0x0
    5744:	00000000 	sll	zero,zero,0x0
    5748:	00000000 	sll	zero,zero,0x0
    574c:	00000000 	sll	zero,zero,0x0
    5750:	00000000 	sll	zero,zero,0x0
    5754:	00000000 	sll	zero,zero,0x0
    5758:	00000000 	sll	zero,zero,0x0
    575c:	00000000 	sll	zero,zero,0x0
    5760:	00000000 	sll	zero,zero,0x0
    5764:	00000000 	sll	zero,zero,0x0
    5768:	00000000 	sll	zero,zero,0x0
    576c:	00000000 	sll	zero,zero,0x0
    5770:	00000000 	sll	zero,zero,0x0
    5774:	00000000 	sll	zero,zero,0x0
    5778:	00000000 	sll	zero,zero,0x0
    577c:	00000000 	sll	zero,zero,0x0
    5780:	00000000 	sll	zero,zero,0x0
    5784:	00000000 	sll	zero,zero,0x0
    5788:	00000000 	sll	zero,zero,0x0
    578c:	00000000 	sll	zero,zero,0x0
    5790:	00000000 	sll	zero,zero,0x0
    5794:	00000000 	sll	zero,zero,0x0
    5798:	00000000 	sll	zero,zero,0x0
    579c:	00000000 	sll	zero,zero,0x0
    57a0:	00000000 	sll	zero,zero,0x0
    57a4:	00000000 	sll	zero,zero,0x0
    57a8:	00000000 	sll	zero,zero,0x0
    57ac:	00000000 	sll	zero,zero,0x0
    57b0:	00000000 	sll	zero,zero,0x0
    57b4:	00000000 	sll	zero,zero,0x0
    57b8:	00000000 	sll	zero,zero,0x0
    57bc:	00000000 	sll	zero,zero,0x0
    57c0:	00000000 	sll	zero,zero,0x0
    57c4:	00000000 	sll	zero,zero,0x0
    57c8:	00000000 	sll	zero,zero,0x0
    57cc:	00000000 	sll	zero,zero,0x0
    57d0:	00000000 	sll	zero,zero,0x0
    57d4:	00000000 	sll	zero,zero,0x0
    57d8:	00000000 	sll	zero,zero,0x0
    57dc:	00000000 	sll	zero,zero,0x0
    57e0:	00000000 	sll	zero,zero,0x0
    57e4:	00000000 	sll	zero,zero,0x0
    57e8:	00000000 	sll	zero,zero,0x0
    57ec:	00000000 	sll	zero,zero,0x0
    57f0:	00000000 	sll	zero,zero,0x0
    57f4:	00000000 	sll	zero,zero,0x0
    57f8:	00000000 	sll	zero,zero,0x0
    57fc:	00000000 	sll	zero,zero,0x0
    5800:	00000000 	sll	zero,zero,0x0
    5804:	00000000 	sll	zero,zero,0x0
    5808:	00000000 	sll	zero,zero,0x0
    580c:	00000000 	sll	zero,zero,0x0
    5810:	00000000 	sll	zero,zero,0x0
    5814:	00000000 	sll	zero,zero,0x0
    5818:	00000000 	sll	zero,zero,0x0
    581c:	00000000 	sll	zero,zero,0x0
    5820:	00000000 	sll	zero,zero,0x0
    5824:	00000000 	sll	zero,zero,0x0
    5828:	00000000 	sll	zero,zero,0x0
    582c:	00000000 	sll	zero,zero,0x0
    5830:	00000000 	sll	zero,zero,0x0
    5834:	00000000 	sll	zero,zero,0x0
    5838:	00000000 	sll	zero,zero,0x0
    583c:	00000000 	sll	zero,zero,0x0
    5840:	00000000 	sll	zero,zero,0x0
    5844:	00000000 	sll	zero,zero,0x0
    5848:	00000000 	sll	zero,zero,0x0
    584c:	00000000 	sll	zero,zero,0x0
    5850:	00000000 	sll	zero,zero,0x0
    5854:	00000000 	sll	zero,zero,0x0
    5858:	00000000 	sll	zero,zero,0x0
    585c:	00000000 	sll	zero,zero,0x0
    5860:	00000000 	sll	zero,zero,0x0
    5864:	00000000 	sll	zero,zero,0x0
    5868:	00000000 	sll	zero,zero,0x0
    586c:	00000000 	sll	zero,zero,0x0
    5870:	00000000 	sll	zero,zero,0x0
    5874:	00000000 	sll	zero,zero,0x0
    5878:	00000000 	sll	zero,zero,0x0
    587c:	00000000 	sll	zero,zero,0x0
    5880:	00000000 	sll	zero,zero,0x0
    5884:	00000000 	sll	zero,zero,0x0
    5888:	00000000 	sll	zero,zero,0x0
    588c:	00000000 	sll	zero,zero,0x0
    5890:	00000000 	sll	zero,zero,0x0
    5894:	00000000 	sll	zero,zero,0x0
    5898:	00000000 	sll	zero,zero,0x0
    589c:	00000000 	sll	zero,zero,0x0
    58a0:	00000000 	sll	zero,zero,0x0
    58a4:	00000000 	sll	zero,zero,0x0
    58a8:	00000000 	sll	zero,zero,0x0
    58ac:	00000000 	sll	zero,zero,0x0
    58b0:	00000000 	sll	zero,zero,0x0
    58b4:	00000000 	sll	zero,zero,0x0
    58b8:	00000000 	sll	zero,zero,0x0
    58bc:	00000000 	sll	zero,zero,0x0
    58c0:	00000000 	sll	zero,zero,0x0
    58c4:	00000000 	sll	zero,zero,0x0
    58c8:	00000000 	sll	zero,zero,0x0
    58cc:	00000000 	sll	zero,zero,0x0
    58d0:	00000000 	sll	zero,zero,0x0
    58d4:	00000000 	sll	zero,zero,0x0
    58d8:	00000000 	sll	zero,zero,0x0
    58dc:	00000000 	sll	zero,zero,0x0
    58e0:	00000000 	sll	zero,zero,0x0
    58e4:	00000000 	sll	zero,zero,0x0
    58e8:	00000000 	sll	zero,zero,0x0
    58ec:	00000000 	sll	zero,zero,0x0
    58f0:	00000000 	sll	zero,zero,0x0
    58f4:	00000000 	sll	zero,zero,0x0
    58f8:	00000000 	sll	zero,zero,0x0
    58fc:	00000000 	sll	zero,zero,0x0
    5900:	00000000 	sll	zero,zero,0x0
    5904:	00000000 	sll	zero,zero,0x0
    5908:	00000000 	sll	zero,zero,0x0
    590c:	00000000 	sll	zero,zero,0x0
    5910:	00000000 	sll	zero,zero,0x0
    5914:	00000000 	sll	zero,zero,0x0
    5918:	00000000 	sll	zero,zero,0x0
    591c:	00000000 	sll	zero,zero,0x0
    5920:	00000000 	sll	zero,zero,0x0
    5924:	00000000 	sll	zero,zero,0x0
    5928:	00000000 	sll	zero,zero,0x0
    592c:	00000000 	sll	zero,zero,0x0
    5930:	00000000 	sll	zero,zero,0x0
    5934:	00000000 	sll	zero,zero,0x0
    5938:	00000000 	sll	zero,zero,0x0
    593c:	00000000 	sll	zero,zero,0x0
    5940:	00000000 	sll	zero,zero,0x0
    5944:	00000000 	sll	zero,zero,0x0
    5948:	00000000 	sll	zero,zero,0x0
    594c:	00000000 	sll	zero,zero,0x0
    5950:	00000000 	sll	zero,zero,0x0
    5954:	00000000 	sll	zero,zero,0x0
    5958:	00000000 	sll	zero,zero,0x0
    595c:	00000000 	sll	zero,zero,0x0
    5960:	00000000 	sll	zero,zero,0x0
    5964:	00000000 	sll	zero,zero,0x0
    5968:	00000000 	sll	zero,zero,0x0
    596c:	00000000 	sll	zero,zero,0x0
    5970:	00000000 	sll	zero,zero,0x0
    5974:	00000000 	sll	zero,zero,0x0
    5978:	00000000 	sll	zero,zero,0x0
    597c:	00000000 	sll	zero,zero,0x0
    5980:	00000000 	sll	zero,zero,0x0
    5984:	00000000 	sll	zero,zero,0x0
    5988:	00000000 	sll	zero,zero,0x0
    598c:	00000000 	sll	zero,zero,0x0
    5990:	00000000 	sll	zero,zero,0x0
    5994:	00000000 	sll	zero,zero,0x0
    5998:	00000000 	sll	zero,zero,0x0
    599c:	00000000 	sll	zero,zero,0x0
    59a0:	00000000 	sll	zero,zero,0x0
    59a4:	00000000 	sll	zero,zero,0x0
    59a8:	00000000 	sll	zero,zero,0x0
    59ac:	00000000 	sll	zero,zero,0x0
    59b0:	00000000 	sll	zero,zero,0x0
    59b4:	00000000 	sll	zero,zero,0x0
    59b8:	00000000 	sll	zero,zero,0x0
    59bc:	00000000 	sll	zero,zero,0x0
    59c0:	00000000 	sll	zero,zero,0x0
    59c4:	00000000 	sll	zero,zero,0x0
    59c8:	00000000 	sll	zero,zero,0x0
    59cc:	00000000 	sll	zero,zero,0x0
    59d0:	00000000 	sll	zero,zero,0x0
    59d4:	00000000 	sll	zero,zero,0x0
    59d8:	00000000 	sll	zero,zero,0x0
    59dc:	00000000 	sll	zero,zero,0x0
    59e0:	00000000 	sll	zero,zero,0x0
    59e4:	00000000 	sll	zero,zero,0x0
    59e8:	00000000 	sll	zero,zero,0x0
    59ec:	00000000 	sll	zero,zero,0x0
    59f0:	00000000 	sll	zero,zero,0x0
    59f4:	00000000 	sll	zero,zero,0x0
    59f8:	00000000 	sll	zero,zero,0x0
    59fc:	00000000 	sll	zero,zero,0x0
    5a00:	00000000 	sll	zero,zero,0x0
    5a04:	00000000 	sll	zero,zero,0x0
    5a08:	00000000 	sll	zero,zero,0x0
    5a0c:	00000000 	sll	zero,zero,0x0
    5a10:	00000000 	sll	zero,zero,0x0
    5a14:	00000000 	sll	zero,zero,0x0
    5a18:	00000000 	sll	zero,zero,0x0
    5a1c:	00000000 	sll	zero,zero,0x0
    5a20:	00000000 	sll	zero,zero,0x0
    5a24:	00000000 	sll	zero,zero,0x0
    5a28:	00000000 	sll	zero,zero,0x0
    5a2c:	00000000 	sll	zero,zero,0x0
    5a30:	00000000 	sll	zero,zero,0x0
    5a34:	00000000 	sll	zero,zero,0x0
    5a38:	00000000 	sll	zero,zero,0x0
    5a3c:	00000000 	sll	zero,zero,0x0
    5a40:	00000000 	sll	zero,zero,0x0
    5a44:	00000000 	sll	zero,zero,0x0
    5a48:	00000000 	sll	zero,zero,0x0
    5a4c:	00000000 	sll	zero,zero,0x0
    5a50:	00000000 	sll	zero,zero,0x0
    5a54:	00000000 	sll	zero,zero,0x0
    5a58:	00000000 	sll	zero,zero,0x0
    5a5c:	00000000 	sll	zero,zero,0x0
    5a60:	00000000 	sll	zero,zero,0x0
    5a64:	00000000 	sll	zero,zero,0x0
    5a68:	00000000 	sll	zero,zero,0x0
    5a6c:	00000000 	sll	zero,zero,0x0
    5a70:	00000000 	sll	zero,zero,0x0
    5a74:	00000000 	sll	zero,zero,0x0
    5a78:	00000000 	sll	zero,zero,0x0
    5a7c:	00000000 	sll	zero,zero,0x0
    5a80:	00000000 	sll	zero,zero,0x0
    5a84:	00000000 	sll	zero,zero,0x0
    5a88:	00000000 	sll	zero,zero,0x0
    5a8c:	00000000 	sll	zero,zero,0x0
    5a90:	00000000 	sll	zero,zero,0x0
    5a94:	00000000 	sll	zero,zero,0x0
    5a98:	00000000 	sll	zero,zero,0x0
    5a9c:	00000000 	sll	zero,zero,0x0
    5aa0:	00000000 	sll	zero,zero,0x0
    5aa4:	00000000 	sll	zero,zero,0x0
    5aa8:	00000000 	sll	zero,zero,0x0
    5aac:	00000000 	sll	zero,zero,0x0
    5ab0:	00000000 	sll	zero,zero,0x0
    5ab4:	00000000 	sll	zero,zero,0x0
    5ab8:	00000000 	sll	zero,zero,0x0
    5abc:	00000000 	sll	zero,zero,0x0
    5ac0:	00000000 	sll	zero,zero,0x0
    5ac4:	00000000 	sll	zero,zero,0x0
    5ac8:	00000000 	sll	zero,zero,0x0
    5acc:	00000000 	sll	zero,zero,0x0
    5ad0:	00000000 	sll	zero,zero,0x0
    5ad4:	00000000 	sll	zero,zero,0x0
    5ad8:	00000000 	sll	zero,zero,0x0
    5adc:	00000000 	sll	zero,zero,0x0
    5ae0:	00000000 	sll	zero,zero,0x0
    5ae4:	00000000 	sll	zero,zero,0x0
    5ae8:	00000000 	sll	zero,zero,0x0
    5aec:	00000000 	sll	zero,zero,0x0
    5af0:	00000000 	sll	zero,zero,0x0
    5af4:	00000000 	sll	zero,zero,0x0
    5af8:	00000000 	sll	zero,zero,0x0
    5afc:	00000000 	sll	zero,zero,0x0
    5b00:	00000000 	sll	zero,zero,0x0
    5b04:	00000000 	sll	zero,zero,0x0
    5b08:	00000000 	sll	zero,zero,0x0
    5b0c:	00000000 	sll	zero,zero,0x0
    5b10:	00000000 	sll	zero,zero,0x0
    5b14:	00000000 	sll	zero,zero,0x0
    5b18:	00000000 	sll	zero,zero,0x0
    5b1c:	00000000 	sll	zero,zero,0x0
    5b20:	00000000 	sll	zero,zero,0x0
    5b24:	00000000 	sll	zero,zero,0x0
    5b28:	00000000 	sll	zero,zero,0x0
    5b2c:	00000000 	sll	zero,zero,0x0
    5b30:	00000000 	sll	zero,zero,0x0
    5b34:	00000000 	sll	zero,zero,0x0
    5b38:	00000000 	sll	zero,zero,0x0
    5b3c:	00000000 	sll	zero,zero,0x0
    5b40:	00000000 	sll	zero,zero,0x0
    5b44:	00000000 	sll	zero,zero,0x0
    5b48:	00000000 	sll	zero,zero,0x0
    5b4c:	00000000 	sll	zero,zero,0x0
    5b50:	00000000 	sll	zero,zero,0x0
    5b54:	00000000 	sll	zero,zero,0x0
    5b58:	00000000 	sll	zero,zero,0x0
    5b5c:	00000000 	sll	zero,zero,0x0
    5b60:	00000000 	sll	zero,zero,0x0
    5b64:	00000000 	sll	zero,zero,0x0
    5b68:	00000000 	sll	zero,zero,0x0
    5b6c:	00000000 	sll	zero,zero,0x0
    5b70:	00000000 	sll	zero,zero,0x0
    5b74:	00000000 	sll	zero,zero,0x0
    5b78:	00000000 	sll	zero,zero,0x0
    5b7c:	00000000 	sll	zero,zero,0x0
    5b80:	00000000 	sll	zero,zero,0x0
    5b84:	00000000 	sll	zero,zero,0x0
    5b88:	00000000 	sll	zero,zero,0x0
    5b8c:	00000000 	sll	zero,zero,0x0
    5b90:	00000000 	sll	zero,zero,0x0
    5b94:	00000000 	sll	zero,zero,0x0
    5b98:	00000000 	sll	zero,zero,0x0
    5b9c:	00000000 	sll	zero,zero,0x0
    5ba0:	00000000 	sll	zero,zero,0x0
    5ba4:	00000000 	sll	zero,zero,0x0
    5ba8:	00000000 	sll	zero,zero,0x0
    5bac:	00000000 	sll	zero,zero,0x0
    5bb0:	00000000 	sll	zero,zero,0x0
    5bb4:	00000000 	sll	zero,zero,0x0
    5bb8:	00000000 	sll	zero,zero,0x0
    5bbc:	00000000 	sll	zero,zero,0x0
    5bc0:	00000000 	sll	zero,zero,0x0
    5bc4:	00000000 	sll	zero,zero,0x0
    5bc8:	00000000 	sll	zero,zero,0x0
    5bcc:	00000000 	sll	zero,zero,0x0
    5bd0:	00000000 	sll	zero,zero,0x0
    5bd4:	00000000 	sll	zero,zero,0x0
    5bd8:	00000000 	sll	zero,zero,0x0
    5bdc:	00000000 	sll	zero,zero,0x0
    5be0:	00000000 	sll	zero,zero,0x0
    5be4:	00000000 	sll	zero,zero,0x0
    5be8:	00000000 	sll	zero,zero,0x0
    5bec:	00000000 	sll	zero,zero,0x0
    5bf0:	00000000 	sll	zero,zero,0x0
    5bf4:	00000000 	sll	zero,zero,0x0
    5bf8:	00000000 	sll	zero,zero,0x0
    5bfc:	00000000 	sll	zero,zero,0x0
    5c00:	00000000 	sll	zero,zero,0x0
    5c04:	00000000 	sll	zero,zero,0x0
    5c08:	00000000 	sll	zero,zero,0x0
    5c0c:	00000000 	sll	zero,zero,0x0
    5c10:	00000000 	sll	zero,zero,0x0
    5c14:	00000000 	sll	zero,zero,0x0
    5c18:	00000000 	sll	zero,zero,0x0
    5c1c:	00000000 	sll	zero,zero,0x0
    5c20:	00000000 	sll	zero,zero,0x0
    5c24:	00000000 	sll	zero,zero,0x0
    5c28:	00000000 	sll	zero,zero,0x0
    5c2c:	00000000 	sll	zero,zero,0x0
    5c30:	00000000 	sll	zero,zero,0x0
    5c34:	00000000 	sll	zero,zero,0x0
    5c38:	00000000 	sll	zero,zero,0x0
    5c3c:	00000000 	sll	zero,zero,0x0
    5c40:	00000000 	sll	zero,zero,0x0
    5c44:	00000000 	sll	zero,zero,0x0
    5c48:	00000000 	sll	zero,zero,0x0
    5c4c:	00000000 	sll	zero,zero,0x0
    5c50:	00000000 	sll	zero,zero,0x0
    5c54:	00000000 	sll	zero,zero,0x0
    5c58:	00000000 	sll	zero,zero,0x0
    5c5c:	00000000 	sll	zero,zero,0x0
    5c60:	00000000 	sll	zero,zero,0x0
    5c64:	00000000 	sll	zero,zero,0x0
    5c68:	00000000 	sll	zero,zero,0x0
    5c6c:	00000000 	sll	zero,zero,0x0
    5c70:	00000000 	sll	zero,zero,0x0
    5c74:	00000000 	sll	zero,zero,0x0
    5c78:	00000000 	sll	zero,zero,0x0
    5c7c:	00000000 	sll	zero,zero,0x0
    5c80:	00000000 	sll	zero,zero,0x0
    5c84:	00000000 	sll	zero,zero,0x0
    5c88:	00000000 	sll	zero,zero,0x0
    5c8c:	00000000 	sll	zero,zero,0x0
    5c90:	00000000 	sll	zero,zero,0x0
    5c94:	00000000 	sll	zero,zero,0x0
    5c98:	00000000 	sll	zero,zero,0x0
    5c9c:	00000000 	sll	zero,zero,0x0
    5ca0:	00000000 	sll	zero,zero,0x0
    5ca4:	00000000 	sll	zero,zero,0x0
    5ca8:	00000000 	sll	zero,zero,0x0
    5cac:	00000000 	sll	zero,zero,0x0
    5cb0:	00000000 	sll	zero,zero,0x0
    5cb4:	00000000 	sll	zero,zero,0x0
    5cb8:	00000000 	sll	zero,zero,0x0
    5cbc:	00000000 	sll	zero,zero,0x0
    5cc0:	00000000 	sll	zero,zero,0x0
    5cc4:	00000000 	sll	zero,zero,0x0
    5cc8:	00000000 	sll	zero,zero,0x0
    5ccc:	00000000 	sll	zero,zero,0x0
    5cd0:	00000000 	sll	zero,zero,0x0
    5cd4:	00000000 	sll	zero,zero,0x0
    5cd8:	00000000 	sll	zero,zero,0x0
    5cdc:	00000000 	sll	zero,zero,0x0
    5ce0:	00000000 	sll	zero,zero,0x0
    5ce4:	00000000 	sll	zero,zero,0x0
    5ce8:	00000000 	sll	zero,zero,0x0
    5cec:	00000000 	sll	zero,zero,0x0
    5cf0:	00000000 	sll	zero,zero,0x0
    5cf4:	00000000 	sll	zero,zero,0x0
    5cf8:	00000000 	sll	zero,zero,0x0
    5cfc:	00000000 	sll	zero,zero,0x0
    5d00:	00000000 	sll	zero,zero,0x0
    5d04:	00000000 	sll	zero,zero,0x0
    5d08:	00000000 	sll	zero,zero,0x0
    5d0c:	00000000 	sll	zero,zero,0x0
    5d10:	00000000 	sll	zero,zero,0x0
    5d14:	00000000 	sll	zero,zero,0x0
    5d18:	00000000 	sll	zero,zero,0x0
    5d1c:	00000000 	sll	zero,zero,0x0
    5d20:	00000000 	sll	zero,zero,0x0
    5d24:	00000000 	sll	zero,zero,0x0
    5d28:	00000000 	sll	zero,zero,0x0
    5d2c:	00000000 	sll	zero,zero,0x0
    5d30:	00000000 	sll	zero,zero,0x0
    5d34:	00000000 	sll	zero,zero,0x0
    5d38:	00000000 	sll	zero,zero,0x0
    5d3c:	00000000 	sll	zero,zero,0x0
    5d40:	00000000 	sll	zero,zero,0x0
    5d44:	00000000 	sll	zero,zero,0x0
    5d48:	00000000 	sll	zero,zero,0x0
    5d4c:	00000000 	sll	zero,zero,0x0
    5d50:	00000000 	sll	zero,zero,0x0
    5d54:	00000000 	sll	zero,zero,0x0
    5d58:	00000000 	sll	zero,zero,0x0
    5d5c:	00000000 	sll	zero,zero,0x0
    5d60:	00000000 	sll	zero,zero,0x0
    5d64:	00000000 	sll	zero,zero,0x0
    5d68:	00000000 	sll	zero,zero,0x0
    5d6c:	00000000 	sll	zero,zero,0x0
    5d70:	00000000 	sll	zero,zero,0x0
    5d74:	00000000 	sll	zero,zero,0x0
    5d78:	00000000 	sll	zero,zero,0x0
    5d7c:	00000000 	sll	zero,zero,0x0
    5d80:	00000000 	sll	zero,zero,0x0
    5d84:	00000000 	sll	zero,zero,0x0
    5d88:	00000000 	sll	zero,zero,0x0
    5d8c:	00000000 	sll	zero,zero,0x0
    5d90:	00000000 	sll	zero,zero,0x0
    5d94:	00000000 	sll	zero,zero,0x0
    5d98:	00000000 	sll	zero,zero,0x0
    5d9c:	00000000 	sll	zero,zero,0x0
    5da0:	00000000 	sll	zero,zero,0x0
    5da4:	00000000 	sll	zero,zero,0x0
    5da8:	00000000 	sll	zero,zero,0x0
    5dac:	00000000 	sll	zero,zero,0x0
    5db0:	00000000 	sll	zero,zero,0x0
    5db4:	00000000 	sll	zero,zero,0x0
    5db8:	00000000 	sll	zero,zero,0x0
    5dbc:	00000000 	sll	zero,zero,0x0
    5dc0:	00000000 	sll	zero,zero,0x0
    5dc4:	00000000 	sll	zero,zero,0x0
    5dc8:	00000000 	sll	zero,zero,0x0
    5dcc:	00000000 	sll	zero,zero,0x0
    5dd0:	00000000 	sll	zero,zero,0x0
    5dd4:	00000000 	sll	zero,zero,0x0
    5dd8:	00000000 	sll	zero,zero,0x0
    5ddc:	00000000 	sll	zero,zero,0x0
    5de0:	00000000 	sll	zero,zero,0x0
    5de4:	00000000 	sll	zero,zero,0x0
    5de8:	00000000 	sll	zero,zero,0x0
    5dec:	00000000 	sll	zero,zero,0x0
    5df0:	00000000 	sll	zero,zero,0x0
    5df4:	00000000 	sll	zero,zero,0x0
    5df8:	00000000 	sll	zero,zero,0x0
    5dfc:	00000000 	sll	zero,zero,0x0
    5e00:	00000000 	sll	zero,zero,0x0
    5e04:	00000000 	sll	zero,zero,0x0
    5e08:	00000000 	sll	zero,zero,0x0
    5e0c:	00000000 	sll	zero,zero,0x0
    5e10:	00000000 	sll	zero,zero,0x0
    5e14:	00000000 	sll	zero,zero,0x0
    5e18:	00000000 	sll	zero,zero,0x0
    5e1c:	00000000 	sll	zero,zero,0x0
    5e20:	00000000 	sll	zero,zero,0x0
    5e24:	00000000 	sll	zero,zero,0x0
    5e28:	00000000 	sll	zero,zero,0x0
    5e2c:	00000000 	sll	zero,zero,0x0
    5e30:	00000000 	sll	zero,zero,0x0
    5e34:	00000000 	sll	zero,zero,0x0
    5e38:	00000000 	sll	zero,zero,0x0
    5e3c:	00000000 	sll	zero,zero,0x0
    5e40:	00000000 	sll	zero,zero,0x0
    5e44:	00000000 	sll	zero,zero,0x0
    5e48:	00000000 	sll	zero,zero,0x0
    5e4c:	00000000 	sll	zero,zero,0x0
    5e50:	00000000 	sll	zero,zero,0x0
    5e54:	00000000 	sll	zero,zero,0x0
    5e58:	00000000 	sll	zero,zero,0x0
    5e5c:	00000000 	sll	zero,zero,0x0
    5e60:	00000000 	sll	zero,zero,0x0
    5e64:	00000000 	sll	zero,zero,0x0
    5e68:	00000000 	sll	zero,zero,0x0
    5e6c:	00000000 	sll	zero,zero,0x0
    5e70:	00000000 	sll	zero,zero,0x0
    5e74:	00000000 	sll	zero,zero,0x0
    5e78:	00000000 	sll	zero,zero,0x0
    5e7c:	00000000 	sll	zero,zero,0x0
    5e80:	00000000 	sll	zero,zero,0x0
    5e84:	00000000 	sll	zero,zero,0x0
    5e88:	00000000 	sll	zero,zero,0x0
    5e8c:	00000000 	sll	zero,zero,0x0
    5e90:	00000000 	sll	zero,zero,0x0
    5e94:	00000000 	sll	zero,zero,0x0
    5e98:	00000000 	sll	zero,zero,0x0
    5e9c:	00000000 	sll	zero,zero,0x0
    5ea0:	00000000 	sll	zero,zero,0x0
    5ea4:	00000000 	sll	zero,zero,0x0
    5ea8:	00000000 	sll	zero,zero,0x0
    5eac:	00000000 	sll	zero,zero,0x0
    5eb0:	00000000 	sll	zero,zero,0x0
    5eb4:	00000000 	sll	zero,zero,0x0
    5eb8:	00000000 	sll	zero,zero,0x0
    5ebc:	00000000 	sll	zero,zero,0x0
    5ec0:	00000000 	sll	zero,zero,0x0
    5ec4:	00000000 	sll	zero,zero,0x0
    5ec8:	00000000 	sll	zero,zero,0x0
    5ecc:	00000000 	sll	zero,zero,0x0
    5ed0:	00000000 	sll	zero,zero,0x0
    5ed4:	00000000 	sll	zero,zero,0x0
    5ed8:	00000000 	sll	zero,zero,0x0
    5edc:	00000000 	sll	zero,zero,0x0
    5ee0:	00000000 	sll	zero,zero,0x0
    5ee4:	00000000 	sll	zero,zero,0x0
    5ee8:	00000000 	sll	zero,zero,0x0
    5eec:	00000000 	sll	zero,zero,0x0
    5ef0:	00000000 	sll	zero,zero,0x0
    5ef4:	00000000 	sll	zero,zero,0x0
    5ef8:	00000000 	sll	zero,zero,0x0
    5efc:	00000000 	sll	zero,zero,0x0
    5f00:	00000000 	sll	zero,zero,0x0
    5f04:	00000000 	sll	zero,zero,0x0
    5f08:	00000000 	sll	zero,zero,0x0
    5f0c:	00000000 	sll	zero,zero,0x0
    5f10:	00000000 	sll	zero,zero,0x0
    5f14:	00000000 	sll	zero,zero,0x0
    5f18:	00000000 	sll	zero,zero,0x0
    5f1c:	00000000 	sll	zero,zero,0x0
    5f20:	00000000 	sll	zero,zero,0x0
    5f24:	00000000 	sll	zero,zero,0x0
    5f28:	00000000 	sll	zero,zero,0x0
    5f2c:	00000000 	sll	zero,zero,0x0
    5f30:	00000000 	sll	zero,zero,0x0
    5f34:	00000000 	sll	zero,zero,0x0
    5f38:	00000000 	sll	zero,zero,0x0
    5f3c:	00000000 	sll	zero,zero,0x0
    5f40:	00000000 	sll	zero,zero,0x0
    5f44:	00000000 	sll	zero,zero,0x0
    5f48:	00000000 	sll	zero,zero,0x0
    5f4c:	00000000 	sll	zero,zero,0x0
    5f50:	00000000 	sll	zero,zero,0x0
    5f54:	00000000 	sll	zero,zero,0x0
    5f58:	00000000 	sll	zero,zero,0x0
    5f5c:	00000000 	sll	zero,zero,0x0
    5f60:	00000000 	sll	zero,zero,0x0
    5f64:	00000000 	sll	zero,zero,0x0
    5f68:	00000000 	sll	zero,zero,0x0
    5f6c:	00000000 	sll	zero,zero,0x0
    5f70:	00000000 	sll	zero,zero,0x0
    5f74:	00000000 	sll	zero,zero,0x0
    5f78:	00000000 	sll	zero,zero,0x0
    5f7c:	00000000 	sll	zero,zero,0x0
    5f80:	00000000 	sll	zero,zero,0x0
    5f84:	00000000 	sll	zero,zero,0x0
    5f88:	00000000 	sll	zero,zero,0x0
    5f8c:	00000000 	sll	zero,zero,0x0
    5f90:	00000000 	sll	zero,zero,0x0
    5f94:	00000000 	sll	zero,zero,0x0
    5f98:	00000000 	sll	zero,zero,0x0
    5f9c:	00000000 	sll	zero,zero,0x0
    5fa0:	00000000 	sll	zero,zero,0x0
    5fa4:	00000000 	sll	zero,zero,0x0
    5fa8:	00000000 	sll	zero,zero,0x0
    5fac:	00000000 	sll	zero,zero,0x0
    5fb0:	00000000 	sll	zero,zero,0x0
    5fb4:	00000000 	sll	zero,zero,0x0
    5fb8:	00000000 	sll	zero,zero,0x0
    5fbc:	00000000 	sll	zero,zero,0x0
    5fc0:	00000000 	sll	zero,zero,0x0
    5fc4:	00000000 	sll	zero,zero,0x0
    5fc8:	00000000 	sll	zero,zero,0x0
    5fcc:	00000000 	sll	zero,zero,0x0
    5fd0:	00000000 	sll	zero,zero,0x0
    5fd4:	00000000 	sll	zero,zero,0x0
    5fd8:	00000000 	sll	zero,zero,0x0
    5fdc:	00000000 	sll	zero,zero,0x0
    5fe0:	00000000 	sll	zero,zero,0x0
    5fe4:	00000000 	sll	zero,zero,0x0
    5fe8:	00000000 	sll	zero,zero,0x0
    5fec:	00000000 	sll	zero,zero,0x0
    5ff0:	00000000 	sll	zero,zero,0x0
    5ff4:	00000000 	sll	zero,zero,0x0
    5ff8:	00000000 	sll	zero,zero,0x0
    5ffc:	00000000 	sll	zero,zero,0x0
    6000:	000009ec 	0x9ec
    6004:	000009b4 	teq	zero,zero,0x26
    6008:	000009ec 	0x9ec
    600c:	000009ec 	0x9ec
    6010:	000009a4 	0x9a4
    6014:	000009ec 	0x9ec
    6018:	000009ec 	0x9ec
    601c:	000009ec 	0x9ec
    6020:	000009ec 	0x9ec
    6024:	000009ec 	0x9ec
    6028:	000009ec 	0x9ec
    602c:	00000994 	0x994
    6030:	000009c4 	0x9c4
    6034:	000009ec 	0x9ec
    6038:	000009d4 	0x9d4
    603c:	000009e4 	0x9e4
    6040:	00000020 	add	zero,zero,zero
    6044:	00000108 	0x108
    6048:	00000020 	add	zero,zero,zero
    604c:	00000104 	0x104
    6050:	00000102 	srl	zero,zero,0x4
    6054:	00000100 	sll	zero,zero,0x4
    6058:	00000101 	0x101
    605c:	0000010b 	0x10b
    6060:	00000020 	add	zero,zero,zero
    6064:	00000109 	0x109
    6068:	00000107 	0x107
    606c:	00000105 	0x105
    6070:	00000103 	sra	zero,zero,0x4
    6074:	00000009 	jalr	zero,zero
    6078:	0000007e 	0x7e
    607c:	00000020 	add	zero,zero,zero
    6080:	00000020 	add	zero,zero,zero
    6084:	00000121 	0x121
    6088:	00000115 	0x115
    608c:	00000020 	add	zero,zero,zero
    6090:	00000116 	0x116
    6094:	00000051 	0x51
    6098:	00000021 	addu	zero,zero,zero
    609c:	00000020 	add	zero,zero,zero
    60a0:	00000020 	add	zero,zero,zero
    60a4:	00000020 	add	zero,zero,zero
    60a8:	0000005a 	0x5a
    60ac:	00000053 	mtlhx	zero
    60b0:	00000041 	0x41
    60b4:	00000057 	0x57
    60b8:	00000029 	0x29
    60bc:	00000117 	0x117
    60c0:	00000020 	add	zero,zero,zero
    60c4:	00000043 	sra	zero,zero,0x1
    60c8:	00000058 	0x58
    60cc:	00000044 	0x44
    60d0:	00000045 	0x45
    60d4:	00000024 	and	zero,zero,zero
    60d8:	00000023 	negu	zero,zero
    60dc:	00000117 	0x117
    60e0:	00000020 	add	zero,zero,zero
    60e4:	00000020 	add	zero,zero,zero
    60e8:	00000056 	0x56
    60ec:	00000046 	rorv	zero,zero,zero
    60f0:	00000054 	0x54
    60f4:	00000052 	mflhxu	zero
    60f8:	00000025 	or	zero,zero,zero
    60fc:	00000114 	0x114
    6100:	00000020 	add	zero,zero,zero
    6104:	0000004e 	0x4e
    6108:	00000042 	srl	zero,zero,0x1
    610c:	00000048 	0x48
    6110:	00000047 	0x47
    6114:	00000059 	0x59
    6118:	0000005e 	0x5e
    611c:	00000020 	add	zero,zero,zero
    6120:	00000020 	add	zero,zero,zero
    6124:	00000020 	add	zero,zero,zero
    6128:	0000004d 	break	0x0,0x1
    612c:	0000004a 	0x4a
    6130:	00000055 	0x55
    6134:	00000026 	xor	zero,zero,zero
    6138:	0000002a 	slt	zero,zero,zero
    613c:	00000020 	add	zero,zero,zero
    6140:	00000020 	add	zero,zero,zero
    6144:	0000003c 	0x3c
    6148:	0000004b 	0x4b
    614c:	00000049 	0x49
    6150:	0000004f 	sync	0x1
    6154:	0000002a 	slt	zero,zero,zero
    6158:	00000028 	0x28
    615c:	00000020 	add	zero,zero,zero
    6160:	00000020 	add	zero,zero,zero
    6164:	0000003e 	0x3e
    6168:	0000003f 	0x3f
    616c:	0000004c 	syscall	0x1
    6170:	0000003a 	0x3a
    6174:	00000050 	0x50
    6178:	0000005f 	0x5f
    617c:	00000020 	add	zero,zero,zero
    6180:	00000020 	add	zero,zero,zero
    6184:	00000020 	add	zero,zero,zero
    6188:	00000022 	neg	zero,zero
    618c:	00000020 	add	zero,zero,zero
    6190:	0000007b 	0x7b
    6194:	0000002b 	sltu	zero,zero,zero
    6198:	00000020 	add	zero,zero,zero
    619c:	00000020 	add	zero,zero,zero
    61a0:	00000014 	0x14
    61a4:	00000115 	0x115
    61a8:	0000000d 	break
    61ac:	0000007d 	0x7d
    61b0:	00000020 	add	zero,zero,zero
    61b4:	0000007c 	0x7c
    61b8:	00000020 	add	zero,zero,zero
    61bc:	00000020 	add	zero,zero,zero
    61c0:	00000020 	add	zero,zero,zero
    61c4:	00000020 	add	zero,zero,zero
    61c8:	00000020 	add	zero,zero,zero
    61cc:	00000020 	add	zero,zero,zero
    61d0:	00000020 	add	zero,zero,zero
    61d4:	00000020 	add	zero,zero,zero
    61d8:	00000008 	jr	zero
    61dc:	00000020 	add	zero,zero,zero
    61e0:	00000020 	add	zero,zero,zero
    61e4:	00000119 	0x119
    61e8:	00000020 	add	zero,zero,zero
    61ec:	0000010e 	0x10e
    61f0:	00000118 	0x118
    61f4:	00000020 	add	zero,zero,zero
    61f8:	00000020 	add	zero,zero,zero
    61fc:	00000020 	add	zero,zero,zero
    6200:	0000011c 	0x11c
    6204:	0000002e 	0x2e
    6208:	0000010d 	break	0x0,0x4
    620c:	0000010f 	sync	0x4
    6210:	00000020 	add	zero,zero,zero
    6214:	0000010c 	syscall	0x4
    6218:	0000001b 	divu	zero,zero,zero
    621c:	00000120 	0x120
    6220:	0000010a 	0x10a
    6224:	0000002b 	sltu	zero,zero,zero
    6228:	00000111 	0x111
    622c:	0000002d 	0x2d
    6230:	0000002a 	slt	zero,zero,zero
    6234:	00000110 	0x110
    6238:	00000020 	add	zero,zero,zero
    623c:	00000020 	add	zero,zero,zero
    6240:	00000020 	add	zero,zero,zero
    6244:	00000020 	add	zero,zero,zero
    6248:	00000020 	add	zero,zero,zero
    624c:	00000106 	0x106
    6250:	00000020 	add	zero,zero,zero
    6254:	00000108 	0x108
    6258:	00000020 	add	zero,zero,zero
    625c:	00000104 	0x104
    6260:	00000102 	srl	zero,zero,0x4
    6264:	00000100 	sll	zero,zero,0x4
    6268:	00000101 	0x101
    626c:	0000010b 	0x10b
    6270:	00000020 	add	zero,zero,zero
    6274:	00000109 	0x109
    6278:	00000107 	0x107
    627c:	00000105 	0x105
    6280:	00000103 	sra	zero,zero,0x4
    6284:	00000009 	jalr	zero,zero
    6288:	00000060 	0x60
    628c:	00000020 	add	zero,zero,zero
    6290:	00000020 	add	zero,zero,zero
    6294:	00000121 	0x121
    6298:	00000115 	0x115
    629c:	00000020 	add	zero,zero,zero
    62a0:	00000116 	0x116
    62a4:	00000071 	tgeu	zero,zero,0x1
    62a8:	00000031 	tgeu	zero,zero
    62ac:	00000020 	add	zero,zero,zero
    62b0:	00000020 	add	zero,zero,zero
    62b4:	00000020 	add	zero,zero,zero
    62b8:	0000007a 	0x7a
    62bc:	00000073 	tltu	zero,zero,0x1
    62c0:	00000061 	0x61
    62c4:	00000077 	0x77
    62c8:	00000032 	tlt	zero,zero
    62cc:	00000117 	0x117
    62d0:	00000020 	add	zero,zero,zero
    62d4:	00000063 	0x63
    62d8:	00000078 	0x78
    62dc:	00000064 	0x64
    62e0:	00000065 	0x65
    62e4:	00000034 	teq	zero,zero
    62e8:	00000033 	tltu	zero,zero
    62ec:	00000117 	0x117
    62f0:	00000020 	add	zero,zero,zero
    62f4:	00000020 	add	zero,zero,zero
    62f8:	00000076 	tne	zero,zero,0x1
    62fc:	00000066 	0x66
    6300:	00000074 	teq	zero,zero,0x1
    6304:	00000072 	tlt	zero,zero,0x1
    6308:	00000035 	0x35
    630c:	00000114 	0x114
    6310:	00000020 	add	zero,zero,zero
    6314:	0000006e 	0x6e
    6318:	00000062 	0x62
    631c:	00000068 	0x68
    6320:	00000067 	0x67
    6324:	00000079 	0x79
    6328:	00000036 	tne	zero,zero
    632c:	00000020 	add	zero,zero,zero
    6330:	00000020 	add	zero,zero,zero
    6334:	00000020 	add	zero,zero,zero
    6338:	0000006d 	0x6d
    633c:	0000006a 	0x6a
    6340:	00000075 	0x75
    6344:	00000037 	0x37
    6348:	00000038 	0x38
    634c:	00000020 	add	zero,zero,zero
    6350:	00000020 	add	zero,zero,zero
    6354:	0000002c 	0x2c
    6358:	0000006b 	0x6b
    635c:	00000069 	0x69
    6360:	0000006f 	0x6f
    6364:	00000030 	tge	zero,zero
    6368:	00000039 	0x39
    636c:	00000020 	add	zero,zero,zero
    6370:	00000020 	add	zero,zero,zero
    6374:	0000002e 	0x2e
    6378:	0000002f 	0x2f
    637c:	0000006c 	0x6c
    6380:	0000003b 	0x3b
    6384:	00000070 	tge	zero,zero,0x1
    6388:	0000002d 	0x2d
    638c:	00000020 	add	zero,zero,zero
    6390:	00000020 	add	zero,zero,zero
    6394:	00000020 	add	zero,zero,zero
    6398:	00000027 	nor	zero,zero,zero
    639c:	00000020 	add	zero,zero,zero
    63a0:	0000005b 	0x5b
    63a4:	0000003d 	0x3d
    63a8:	00000020 	add	zero,zero,zero
    63ac:	00000020 	add	zero,zero,zero
    63b0:	00000014 	0x14
    63b4:	00000115 	0x115
    63b8:	0000000d 	break
    63bc:	0000005d 	0x5d
    63c0:	00000020 	add	zero,zero,zero
    63c4:	0000005c 	0x5c
    63c8:	00000020 	add	zero,zero,zero
    63cc:	00000020 	add	zero,zero,zero
    63d0:	00000020 	add	zero,zero,zero
    63d4:	00000020 	add	zero,zero,zero
    63d8:	00000020 	add	zero,zero,zero
    63dc:	00000020 	add	zero,zero,zero
    63e0:	00000020 	add	zero,zero,zero
    63e4:	00000020 	add	zero,zero,zero
    63e8:	00000008 	jr	zero
    63ec:	00000020 	add	zero,zero,zero
    63f0:	00000020 	add	zero,zero,zero
    63f4:	00000119 	0x119
    63f8:	00000020 	add	zero,zero,zero
    63fc:	0000010e 	0x10e
    6400:	00000118 	0x118
    6404:	00000020 	add	zero,zero,zero
    6408:	00000020 	add	zero,zero,zero
    640c:	00000020 	add	zero,zero,zero
    6410:	0000011c 	0x11c
    6414:	0000002e 	0x2e
    6418:	0000010d 	break	0x0,0x4
    641c:	0000010f 	sync	0x4
    6420:	00000020 	add	zero,zero,zero
    6424:	0000010c 	syscall	0x4
    6428:	0000001b 	divu	zero,zero,zero
    642c:	00000120 	0x120
    6430:	0000010a 	0x10a
    6434:	0000002b 	sltu	zero,zero,zero
    6438:	00000111 	0x111
    643c:	0000002d 	0x2d
    6440:	0000002a 	slt	zero,zero,zero
    6444:	00000110 	0x110
    6448:	00000020 	add	zero,zero,zero
    644c:	00000020 	add	zero,zero,zero
    6450:	00000020 	add	zero,zero,zero
    6454:	00000020 	add	zero,zero,zero
    6458:	00000020 	add	zero,zero,zero
    645c:	00000106 	0x106
    6460:	00000754 	0x754
    6464:	0000076f 	0x76f
    6468:	0000076f 	0x76f
    646c:	00000720 	0x720
    6470:	0000074c 	syscall	0x1d
    6474:	0000076f 	0x76f
    6478:	0000076e 	0x76e
    647c:	00000767 	0x767
    6480:	00000721 	0x721
    6484:	00000000 	sll	zero,zero,0x0
    6488:	02200000 	0x2200000
    648c:	05000101 	bltz	t0,0x6894
    6490:	00000000 	sll	zero,zero,0x0
    6494:	00000000 	sll	zero,zero,0x0
    6498:	00000000 	sll	zero,zero,0x0
    649c:	00000000 	sll	zero,zero,0x0
